


ARM Macro Assembler    Page 1 


    1 00000000         ; generated by Component: ARM Compiler 5.06 update 6 (bu
                       ild 750) Tool: ArmCC [4d3637]
    2 00000000         ; commandline ArmCC [--debug -c -S -o./flash/\stm32f4xx_
                       hal_adc.s --depend=./flash/\stm32f4xx_hal_adc.d --cpu=Co
                       rtex-M4.fp --apcs=interwork -O0 --diag_suppress=9931 -I.
                       ./../touchgfx/framework/include -I../../gui/include -I..
                       /../target/include -I../../platform/os -I../../generated
                       /fonts/include -I../../generated/images/include -I../../
                       generated/texts/include -I../../generated/gui_generated/
                       include -I../bsp/include -I../bsp/include/platform/core/
                       arm/cortex-m/CMSIS -I../bsp/include/platform/hal/mcu/stm
                       32f4cube -I../bsp/include/platform/hal/mcu/stm32f4cube/S
                       TM32F4xx_HAL_Driver -I../bsp/include/platform/hal/mcu/st
                       m32f4cube/CMSIS -I../bsp/include -I../bsp/include/bsp -I
                       ../bsp/source/vendor/STM32469I-Discovery -I../os/FreeRTO
                       S7.6.0/Source/include -I../os/FreeRTOS7.6.0/Source/porta
                       ble/RVDS/ARM_CM4F -IC:\Keil_v5\ARM\RV31\INC -IC:\Keil_v5
                       \ARM\CMSIS\Include -IC:\Keil_v5\ARM\INC\ST\STM32F4xx -D_
                       _UVISION_VERSION=526 -DST -DSTM32F469xx -DUSE_OS_SYSTICK
                        -DUSE_BPP=16 -DSTM32F429_439xx --omf_browse=./flash/\st
                       m32f4xx_hal_adc.crf ../bsp/source/platform/hal/mcu/stm32
                       f4cube/STM32F4xx_HAL_Driver/stm32f4xx_hal_adc.c]
    3 00000000                 THUMB
    4 00000000                 REQUIRE8
    5 00000000                 PRESERVE8
    6 00000000         
    7 00000000                 AREA             ||.text||, CODE, READONLY, ALIG
N=2
    8 00000000         
    9 00000000         ADC_Init
                               PROC
   10 00000000 49FC            LDR              r1,|L0.1012|
   11 00000002 6809            LDR              r1,[r1,#0]
   12 00000004 F421 3140       BIC              r1,r1,#0x30000
   13 00000008 4AFB            LDR              r2,|L0.1016|
   14 0000000A F8C2 1304       STR              r1,[r2,#0x304]
   15 0000000E 4611            MOV              r1,r2
   16 00000010 F8D1 1304       LDR              r1,[r1,#0x304]
   17 00000014 6842            LDR              r2,[r0,#4]
   18 00000016 4311            ORRS             r1,r1,r2
   19 00000018 4AF6            LDR              r2,|L0.1012|
   20 0000001A 6011            STR              r1,[r2,#0]
   21 0000001C 6801            LDR              r1,[r0,#0]
   22 0000001E 6849            LDR              r1,[r1,#4]
   23 00000020 F421 7180       BIC              r1,r1,#0x100
   24 00000024 6802            LDR              r2,[r0,#0]
   25 00000026 6051            STR              r1,[r2,#4]
   26 00000028 6801            LDR              r1,[r0,#0]
   27 0000002A 684A            LDR              r2,[r1,#4]
   28 0000002C 6901            LDR              r1,[r0,#0x10]
   29 0000002E EA42 2101       ORR              r1,r2,r1,LSL #8
   30 00000032 6802            LDR              r2,[r0,#0]
   31 00000034 6051            STR              r1,[r2,#4]
   32 00000036 6801            LDR              r1,[r0,#0]
   33 00000038 6849            LDR              r1,[r1,#4]
   34 0000003A F021 7140       BIC              r1,r1,#0x3000000
   35 0000003E 6802            LDR              r2,[r0,#0]
   36 00000040 6051            STR              r1,[r2,#4]
   37 00000042 6801            LDR              r1,[r0,#0]



ARM Macro Assembler    Page 2 


   38 00000044 6849            LDR              r1,[r1,#4]
   39 00000046 6882            LDR              r2,[r0,#8]
   40 00000048 4311            ORRS             r1,r1,r2
   41 0000004A 6802            LDR              r2,[r0,#0]
   42 0000004C 6051            STR              r1,[r2,#4]
   43 0000004E 6801            LDR              r1,[r0,#0]
   44 00000050 6889            LDR              r1,[r1,#8]
   45 00000052 F421 6100       BIC              r1,r1,#0x800
   46 00000056 6802            LDR              r2,[r0,#0]
   47 00000058 6091            STR              r1,[r2,#8]
   48 0000005A 6801            LDR              r1,[r0,#0]
   49 0000005C 6889            LDR              r1,[r1,#8]
   50 0000005E 68C2            LDR              r2,[r0,#0xc]
   51 00000060 4311            ORRS             r1,r1,r2
   52 00000062 6802            LDR              r2,[r0,#0]
   53 00000064 6091            STR              r1,[r2,#8]
   54 00000066 4AE5            LDR              r2,|L0.1020|
   55 00000068 6AC1            LDR              r1,[r0,#0x2c]
   56 0000006A 4291            CMP              r1,r2
   57 0000006C D018            BEQ              |L0.160|
   58 0000006E 6801            LDR              r1,[r0,#0]
   59 00000070 6889            LDR              r1,[r1,#8]
   60 00000072 F021 6170       BIC              r1,r1,#0xf000000
   61 00000076 6802            LDR              r2,[r0,#0]
   62 00000078 6091            STR              r1,[r2,#8]
   63 0000007A 6801            LDR              r1,[r0,#0]
   64 0000007C 6889            LDR              r1,[r1,#8]
   65 0000007E 6AC2            LDR              r2,[r0,#0x2c]
   66 00000080 4311            ORRS             r1,r1,r2
   67 00000082 6802            LDR              r2,[r0,#0]
   68 00000084 6091            STR              r1,[r2,#8]
   69 00000086 6801            LDR              r1,[r0,#0]
   70 00000088 6889            LDR              r1,[r1,#8]
   71 0000008A F021 5140       BIC              r1,r1,#0x30000000
   72 0000008E 6802            LDR              r2,[r0,#0]
   73 00000090 6091            STR              r1,[r2,#8]
   74 00000092 6801            LDR              r1,[r0,#0]
   75 00000094 6889            LDR              r1,[r1,#8]
   76 00000096 6B02            LDR              r2,[r0,#0x30]
   77 00000098 4311            ORRS             r1,r1,r2
   78 0000009A 6802            LDR              r2,[r0,#0]
   79 0000009C 6091            STR              r1,[r2,#8]
   80 0000009E E00B            B                |L0.184|
   81 000000A0         |L0.160|
   82 000000A0 6801            LDR              r1,[r0,#0]
   83 000000A2 6889            LDR              r1,[r1,#8]
   84 000000A4 F021 6170       BIC              r1,r1,#0xf000000
   85 000000A8 6802            LDR              r2,[r0,#0]
   86 000000AA 6091            STR              r1,[r2,#8]
   87 000000AC 6801            LDR              r1,[r0,#0]
   88 000000AE 6889            LDR              r1,[r1,#8]
   89 000000B0 F021 5140       BIC              r1,r1,#0x30000000
   90 000000B4 6802            LDR              r2,[r0,#0]
   91 000000B6 6091            STR              r1,[r2,#8]
   92 000000B8         |L0.184|
   93 000000B8 6801            LDR              r1,[r0,#0]
   94 000000BA 6889            LDR              r1,[r1,#8]
   95 000000BC F021 0102       BIC              r1,r1,#2
   96 000000C0 6802            LDR              r2,[r0,#0]



ARM Macro Assembler    Page 3 


   97 000000C2 6091            STR              r1,[r2,#8]
   98 000000C4 6801            LDR              r1,[r0,#0]
   99 000000C6 688A            LDR              r2,[r1,#8]
  100 000000C8 6981            LDR              r1,[r0,#0x18]
  101 000000CA EA42 0141       ORR              r1,r2,r1,LSL #1
  102 000000CE 6802            LDR              r2,[r0,#0]
  103 000000D0 6091            STR              r1,[r2,#8]
  104 000000D2 6A41            LDR              r1,[r0,#0x24]
  105 000000D4 B1D1            CBZ              r1,|L0.268|
  106 000000D6 6801            LDR              r1,[r0,#0]
  107 000000D8 6849            LDR              r1,[r1,#4]
  108 000000DA F441 6100       ORR              r1,r1,#0x800
  109 000000DE 6802            LDR              r2,[r0,#0]
  110 000000E0 6051            STR              r1,[r2,#4]
  111 000000E2 6801            LDR              r1,[r0,#0]
  112 000000E4 6849            LDR              r1,[r1,#4]
  113 000000E6 F421 4160       BIC              r1,r1,#0xe000
  114 000000EA 6802            LDR              r2,[r0,#0]
  115 000000EC 6051            STR              r1,[r2,#4]
  116 000000EE 6801            LDR              r1,[r0,#0]
  117 000000F0 684A            LDR              r2,[r1,#4]
  118 000000F2 6A81            LDR              r1,[r0,#0x28]
  119 000000F4 1E49            SUBS             r1,r1,#1
  120 000000F6 F44F 4360       MOV              r3,#0xe000
  121 000000FA FA93 F3A3       RBIT             r3,r3
  122 000000FE FAB3 F383       CLZ              r3,r3
  123 00000102 4099            LSLS             r1,r1,r3
  124 00000104 430A            ORRS             r2,r2,r1
  125 00000106 6801            LDR              r1,[r0,#0]
  126 00000108 604A            STR              r2,[r1,#4]
  127 0000010A E005            B                |L0.280|
  128 0000010C         |L0.268|
  129 0000010C 6801            LDR              r1,[r0,#0]
  130 0000010E 6849            LDR              r1,[r1,#4]
  131 00000110 F421 6100       BIC              r1,r1,#0x800
  132 00000114 6802            LDR              r2,[r0,#0]
  133 00000116 6051            STR              r1,[r2,#4]
  134 00000118         |L0.280|
  135 00000118 6801            LDR              r1,[r0,#0]
  136 0000011A 6AC9            LDR              r1,[r1,#0x2c]
  137 0000011C F421 0170       BIC              r1,r1,#0xf00000
  138 00000120 6802            LDR              r2,[r0,#0]
  139 00000122 62D1            STR              r1,[r2,#0x2c]
  140 00000124 6801            LDR              r1,[r0,#0]
  141 00000126 6ACA            LDR              r2,[r1,#0x2c]
  142 00000128 8C01            LDRH             r1,[r0,#0x20]
  143 0000012A 1E49            SUBS             r1,r1,#1
  144 0000012C EA42 5101       ORR              r1,r2,r1,LSL #20
  145 00000130 6802            LDR              r2,[r0,#0]
  146 00000132 62D1            STR              r1,[r2,#0x2c]
  147 00000134 6801            LDR              r1,[r0,#0]
  148 00000136 6889            LDR              r1,[r1,#8]
  149 00000138 F421 7100       BIC              r1,r1,#0x200
  150 0000013C 6802            LDR              r2,[r0,#0]
  151 0000013E 6091            STR              r1,[r2,#8]
  152 00000140 6801            LDR              r1,[r0,#0]
  153 00000142 688A            LDR              r2,[r1,#8]
  154 00000144 69C1            LDR              r1,[r0,#0x1c]
  155 00000146 EA42 2141       ORR              r1,r2,r1,LSL #9



ARM Macro Assembler    Page 4 


  156 0000014A 6802            LDR              r2,[r0,#0]
  157 0000014C 6091            STR              r1,[r2,#8]
  158 0000014E 6801            LDR              r1,[r0,#0]
  159 00000150 6889            LDR              r1,[r1,#8]
  160 00000152 F421 6180       BIC              r1,r1,#0x400
  161 00000156 6802            LDR              r2,[r0,#0]
  162 00000158 6091            STR              r1,[r2,#8]
  163 0000015A 6801            LDR              r1,[r0,#0]
  164 0000015C 688A            LDR              r2,[r1,#8]
  165 0000015E 6941            LDR              r1,[r0,#0x14]
  166 00000160 EA42 2181       ORR              r1,r2,r1,LSL #10
  167 00000164 6802            LDR              r2,[r0,#0]
  168 00000166 6091            STR              r1,[r2,#8]
  169 00000168 4770            BX               lr
  170 0000016A                 ENDP
  171 0000016A         
  172 0000016A         HAL_ADC_MspInit
                               PROC
  173 0000016A 4770            BX               lr
  174 0000016C                 ENDP
  175 0000016C         
  176 0000016C         HAL_ADC_Init
                               PROC
  177 0000016C B510            PUSH             {r4,lr}
  178 0000016E 4604            MOV              r4,r0
  179 00000170 B90C            CBNZ             r4,|L0.374|
  180 00000172 2001            MOVS             r0,#1
  181 00000174         |L0.372|
  182 00000174 BD10            POP              {r4,pc}
  183 00000176         |L0.374|
  184 00000176 49A1            LDR              r1,|L0.1020|
  185 00000178 6AE0            LDR              r0,[r4,#0x2c]
  186 0000017A 4288            CMP              r0,r1
  187 0000017C D000            BEQ              |L0.384|
  188 0000017E BF00            NOP
  189 00000180         |L0.384|
  190 00000180 F894 003D       LDRB             r0,[r4,#0x3d]
  191 00000184 B928            CBNZ             r0,|L0.402|
  192 00000186 2000            MOVS             r0,#0
  193 00000188 F884 003C       STRB             r0,[r4,#0x3c]
  194 0000018C 4620            MOV              r0,r4
  195 0000018E F7FF FFFE       BL               HAL_ADC_MspInit
  196 00000192         |L0.402|
  197 00000192 2002            MOVS             r0,#2
  198 00000194 F884 003D       STRB             r0,[r4,#0x3d]
  199 00000198 4620            MOV              r0,r4
  200 0000019A F7FF FFFE       BL               ADC_Init
  201 0000019E 2000            MOVS             r0,#0
  202 000001A0 6420            STR              r0,[r4,#0x40]
  203 000001A2 2001            MOVS             r0,#1
  204 000001A4 F884 003D       STRB             r0,[r4,#0x3d]
  205 000001A8 BF00            NOP
  206 000001AA 2000            MOVS             r0,#0
  207 000001AC F884 003C       STRB             r0,[r4,#0x3c]
  208 000001B0 BF00            NOP
  209 000001B2 BF00            NOP
  210 000001B4 E7DE            B                |L0.372|
  211 000001B6                 ENDP
  212 000001B6         



ARM Macro Assembler    Page 5 


  213 000001B6         HAL_ADC_MspDeInit
                               PROC
  214 000001B6 4770            BX               lr
  215 000001B8                 ENDP
  216 000001B8         
  217 000001B8         HAL_ADC_DeInit
                               PROC
  218 000001B8 B510            PUSH             {r4,lr}
  219 000001BA 4604            MOV              r4,r0
  220 000001BC B90C            CBNZ             r4,|L0.450|
  221 000001BE 2001            MOVS             r0,#1
  222 000001C0         |L0.448|
  223 000001C0 BD10            POP              {r4,pc}
  224 000001C2         |L0.450|
  225 000001C2 2002            MOVS             r0,#2
  226 000001C4 F884 003D       STRB             r0,[r4,#0x3d]
  227 000001C8 4620            MOV              r0,r4
  228 000001CA F7FF FFFE       BL               HAL_ADC_MspDeInit
  229 000001CE 2000            MOVS             r0,#0
  230 000001D0 6420            STR              r0,[r4,#0x40]
  231 000001D2 F884 003D       STRB             r0,[r4,#0x3d]
  232 000001D6 BF00            NOP
  233 000001D8 E7F2            B                |L0.448|
  234 000001DA                 ENDP
  235 000001DA         
  236 000001DA         HAL_ADC_Start
                               PROC
  237 000001DA B508            PUSH             {r3,lr}
  238 000001DC 4601            MOV              r1,r0
  239 000001DE 2000            MOVS             r0,#0
  240 000001E0 9000            STR              r0,[sp,#0]
  241 000001E2 BF00            NOP
  242 000001E4 F891 003C       LDRB             r0,[r1,#0x3c]
  243 000001E8 2801            CMP              r0,#1
  244 000001EA D101            BNE              |L0.496|
  245 000001EC 2002            MOVS             r0,#2
  246 000001EE         |L0.494|
  247 000001EE BD08            POP              {r3,pc}
  248 000001F0         |L0.496|
  249 000001F0 2001            MOVS             r0,#1
  250 000001F2 F881 003C       STRB             r0,[r1,#0x3c]
  251 000001F6 BF00            NOP
  252 000001F8 F891 003D       LDRB             r0,[r1,#0x3d]
  253 000001FC 2822            CMP              r0,#0x22
  254 000001FE D103            BNE              |L0.520|
  255 00000200 2032            MOVS             r0,#0x32
  256 00000202 F881 003D       STRB             r0,[r1,#0x3d]
  257 00000206 E002            B                |L0.526|
  258 00000208         |L0.520|
  259 00000208 2012            MOVS             r0,#0x12
  260 0000020A F881 003D       STRB             r0,[r1,#0x3d]
  261 0000020E         |L0.526|
  262 0000020E 6808            LDR              r0,[r1,#0]
  263 00000210 6880            LDR              r0,[r0,#8]
  264 00000212 F000 0001       AND              r0,r0,#1
  265 00000216 B9A0            CBNZ             r0,|L0.578|
  266 00000218 6808            LDR              r0,[r1,#0]
  267 0000021A 6880            LDR              r0,[r0,#8]
  268 0000021C F040 0001       ORR              r0,r0,#1



ARM Macro Assembler    Page 6 


  269 00000220 680A            LDR              r2,[r1,#0]
  270 00000222 6090            STR              r0,[r2,#8]
  271 00000224 4876            LDR              r0,|L0.1024|
  272 00000226 6800            LDR              r0,[r0,#0]  ; SystemCoreClock
  273 00000228 4A76            LDR              r2,|L0.1028|
  274 0000022A FBB0 F0F2       UDIV             r0,r0,r2
  275 0000022E EB00 0040       ADD              r0,r0,r0,LSL #1
  276 00000232 9000            STR              r0,[sp,#0]
  277 00000234 E002            B                |L0.572|
  278 00000236         |L0.566|
  279 00000236 9800            LDR              r0,[sp,#0]
  280 00000238 1E40            SUBS             r0,r0,#1
  281 0000023A 9000            STR              r0,[sp,#0]
  282 0000023C         |L0.572|
  283 0000023C 9800            LDR              r0,[sp,#0]
  284 0000023E 2800            CMP              r0,#0
  285 00000240 D1F9            BNE              |L0.566|
  286 00000242         |L0.578|
  287 00000242 BF00            NOP
  288 00000244 2000            MOVS             r0,#0
  289 00000246 F881 003C       STRB             r0,[r1,#0x3c]
  290 0000024A BF00            NOP
  291 0000024C 4869            LDR              r0,|L0.1012|
  292 0000024E 6800            LDR              r0,[r0,#0]
  293 00000250 F000 001F       AND              r0,r0,#0x1f
  294 00000254 B958            CBNZ             r0,|L0.622|
  295 00000256 6808            LDR              r0,[r1,#0]
  296 00000258 6880            LDR              r0,[r0,#8]
  297 0000025A F000 5040       AND              r0,r0,#0x30000000
  298 0000025E B9A8            CBNZ             r0,|L0.652|
  299 00000260 6808            LDR              r0,[r1,#0]
  300 00000262 6880            LDR              r0,[r0,#8]
  301 00000264 F040 4080       ORR              r0,r0,#0x40000000
  302 00000268 680A            LDR              r2,[r1,#0]
  303 0000026A 6090            STR              r0,[r2,#8]
  304 0000026C E00E            B                |L0.652|
  305 0000026E         |L0.622|
  306 0000026E 4A62            LDR              r2,|L0.1016|
  307 00000270 6808            LDR              r0,[r1,#0]
  308 00000272 4290            CMP              r0,r2
  309 00000274 D10A            BNE              |L0.652|
  310 00000276 6808            LDR              r0,[r1,#0]
  311 00000278 6880            LDR              r0,[r0,#8]
  312 0000027A F000 5040       AND              r0,r0,#0x30000000
  313 0000027E B928            CBNZ             r0,|L0.652|
  314 00000280 6808            LDR              r0,[r1,#0]
  315 00000282 6880            LDR              r0,[r0,#8]
  316 00000284 F040 4080       ORR              r0,r0,#0x40000000
  317 00000288 680A            LDR              r2,[r1,#0]
  318 0000028A 6090            STR              r0,[r2,#8]
  319 0000028C         |L0.652|
  320 0000028C 2000            MOVS             r0,#0
  321 0000028E E7AE            B                |L0.494|
  322 00000290                 ENDP
  323 00000290         
  324 00000290         HAL_ADC_Stop
                               PROC
  325 00000290 4601            MOV              r1,r0
  326 00000292 6808            LDR              r0,[r1,#0]



ARM Macro Assembler    Page 7 


  327 00000294 6880            LDR              r0,[r0,#8]
  328 00000296 F020 0001       BIC              r0,r0,#1
  329 0000029A 680A            LDR              r2,[r1,#0]
  330 0000029C 6090            STR              r0,[r2,#8]
  331 0000029E 2001            MOVS             r0,#1
  332 000002A0 F881 003D       STRB             r0,[r1,#0x3d]
  333 000002A4 2000            MOVS             r0,#0
  334 000002A6 4770            BX               lr
  335 000002A8                 ENDP
  336 000002A8         
  337 000002A8         HAL_ADC_PollForConversion
                               PROC
  338 000002A8 B570            PUSH             {r4-r6,lr}
  339 000002AA 4604            MOV              r4,r0
  340 000002AC 460D            MOV              r5,r1
  341 000002AE 2600            MOVS             r6,#0
  342 000002B0 6820            LDR              r0,[r4,#0]
  343 000002B2 6880            LDR              r0,[r0,#8]
  344 000002B4 F400 6080       AND              r0,r0,#0x400
  345 000002B8 B170            CBZ              r0,|L0.728|
  346 000002BA 6820            LDR              r0,[r4,#0]
  347 000002BC 6880            LDR              r0,[r0,#8]
  348 000002BE F400 7080       AND              r0,r0,#0x100
  349 000002C2 B148            CBZ              r0,|L0.728|
  350 000002C4 2004            MOVS             r0,#4
  351 000002C6 F884 003D       STRB             r0,[r4,#0x3d]
  352 000002CA BF00            NOP
  353 000002CC 2000            MOVS             r0,#0
  354 000002CE F884 003C       STRB             r0,[r4,#0x3c]
  355 000002D2 BF00            NOP
  356 000002D4 2001            MOVS             r0,#1
  357 000002D6         |L0.726|
  358 000002D6 BD70            POP              {r4-r6,pc}
  359 000002D8         |L0.728|
  360 000002D8 F7FF FFFE       BL               HAL_GetTick
  361 000002DC 4606            MOV              r6,r0
  362 000002DE E011            B                |L0.772|
  363 000002E0         |L0.736|
  364 000002E0 1C68            ADDS             r0,r5,#1
  365 000002E2 B178            CBZ              r0,|L0.772|
  366 000002E4 B125            CBZ              r5,|L0.752|
  367 000002E6 F7FF FFFE       BL               HAL_GetTick
  368 000002EA 1B80            SUBS             r0,r0,r6
  369 000002EC 42A8            CMP              r0,r5
  370 000002EE D909            BLS              |L0.772|
  371 000002F0         |L0.752|
  372 000002F0 2003            MOVS             r0,#3
  373 000002F2 F884 003D       STRB             r0,[r4,#0x3d]
  374 000002F6 BF00            NOP
  375 000002F8 2000            MOVS             r0,#0
  376 000002FA F884 003C       STRB             r0,[r4,#0x3c]
  377 000002FE BF00            NOP
  378 00000300 2003            MOVS             r0,#3
  379 00000302 E7E8            B                |L0.726|
  380 00000304         |L0.772|
  381 00000304 6820            LDR              r0,[r4,#0]
  382 00000306 6800            LDR              r0,[r0,#0]
  383 00000308 F000 0002       AND              r0,r0,#2
  384 0000030C 2802            CMP              r0,#2



ARM Macro Assembler    Page 8 


  385 0000030E D1E7            BNE              |L0.736|
  386 00000310 F894 003D       LDRB             r0,[r4,#0x3d]
  387 00000314 2825            CMP              r0,#0x25
  388 00000316 D103            BNE              |L0.800|
  389 00000318 2035            MOVS             r0,#0x35
  390 0000031A F884 003D       STRB             r0,[r4,#0x3d]
  391 0000031E E002            B                |L0.806|
  392 00000320         |L0.800|
  393 00000320 2015            MOVS             r0,#0x15
  394 00000322 F884 003D       STRB             r0,[r4,#0x3d]
  395 00000326         |L0.806|
  396 00000326 2000            MOVS             r0,#0
  397 00000328 E7D5            B                |L0.726|
  398 0000032A                 ENDP
  399 0000032A         
  400 0000032A         HAL_ADC_PollForEvent
                               PROC
  401 0000032A E92D 41F0       PUSH             {r4-r8,lr}
  402 0000032E 4604            MOV              r4,r0
  403 00000330 460D            MOV              r5,r1
  404 00000332 4616            MOV              r6,r2
  405 00000334 2700            MOVS             r7,#0
  406 00000336 F7FF FFFE       BL               HAL_GetTick
  407 0000033A 4607            MOV              r7,r0
  408 0000033C E012            B                |L0.868|
  409 0000033E         |L0.830|
  410 0000033E 1C70            ADDS             r0,r6,#1
  411 00000340 B180            CBZ              r0,|L0.868|
  412 00000342 B126            CBZ              r6,|L0.846|
  413 00000344 F7FF FFFE       BL               HAL_GetTick
  414 00000348 1BC0            SUBS             r0,r0,r7
  415 0000034A 42B0            CMP              r0,r6
  416 0000034C D90A            BLS              |L0.868|
  417 0000034E         |L0.846|
  418 0000034E 2003            MOVS             r0,#3
  419 00000350 F884 003D       STRB             r0,[r4,#0x3d]
  420 00000354 BF00            NOP
  421 00000356 2000            MOVS             r0,#0
  422 00000358 F884 003C       STRB             r0,[r4,#0x3c]
  423 0000035C BF00            NOP
  424 0000035E 2003            MOVS             r0,#3
  425 00000360         |L0.864|
  426 00000360 E8BD 81F0       POP              {r4-r8,pc}
  427 00000364         |L0.868|
  428 00000364 6820            LDR              r0,[r4,#0]
  429 00000366 6800            LDR              r0,[r0,#0]
  430 00000368 4028            ANDS             r0,r0,r5
  431 0000036A 42A8            CMP              r0,r5
  432 0000036C D1E7            BNE              |L0.830|
  433 0000036E 2D01            CMP              r5,#1
  434 00000370 D106            BNE              |L0.896|
  435 00000372 2006            MOVS             r0,#6
  436 00000374 F884 003D       STRB             r0,[r4,#0x3d]
  437 00000378 1EE8            SUBS             r0,r5,#3
  438 0000037A 6821            LDR              r1,[r4,#0]
  439 0000037C 6008            STR              r0,[r1,#0]
  440 0000037E E006            B                |L0.910|
  441 00000380         |L0.896|
  442 00000380 2004            MOVS             r0,#4



ARM Macro Assembler    Page 9 


  443 00000382 F884 003D       STRB             r0,[r4,#0x3d]
  444 00000386 F06F 0020       MVN              r0,#0x20
  445 0000038A 6821            LDR              r1,[r4,#0]
  446 0000038C 6008            STR              r0,[r1,#0]
  447 0000038E         |L0.910|
  448 0000038E 2000            MOVS             r0,#0
  449 00000390 E7E6            B                |L0.864|
  450 00000392                 ENDP
  451 00000392         
  452 00000392         HAL_ADC_Start_IT
                               PROC
  453 00000392 B508            PUSH             {r3,lr}
  454 00000394 4601            MOV              r1,r0
  455 00000396 2000            MOVS             r0,#0
  456 00000398 9000            STR              r0,[sp,#0]
  457 0000039A BF00            NOP
  458 0000039C F891 003C       LDRB             r0,[r1,#0x3c]
  459 000003A0 2801            CMP              r0,#1
  460 000003A2 D101            BNE              |L0.936|
  461 000003A4 2002            MOVS             r0,#2
  462 000003A6         |L0.934|
  463 000003A6 BD08            POP              {r3,pc}
  464 000003A8         |L0.936|
  465 000003A8 2001            MOVS             r0,#1
  466 000003AA F881 003C       STRB             r0,[r1,#0x3c]
  467 000003AE BF00            NOP
  468 000003B0 F891 003D       LDRB             r0,[r1,#0x3d]
  469 000003B4 2822            CMP              r0,#0x22
  470 000003B6 D103            BNE              |L0.960|
  471 000003B8 2032            MOVS             r0,#0x32
  472 000003BA F881 003D       STRB             r0,[r1,#0x3d]
  473 000003BE E002            B                |L0.966|
  474 000003C0         |L0.960|
  475 000003C0 2012            MOVS             r0,#0x12
  476 000003C2 F881 003D       STRB             r0,[r1,#0x3d]
  477 000003C6         |L0.966|
  478 000003C6 2000            MOVS             r0,#0
  479 000003C8 6408            STR              r0,[r1,#0x40]
  480 000003CA 6808            LDR              r0,[r1,#0]
  481 000003CC 6880            LDR              r0,[r0,#8]
  482 000003CE F000 0001       AND              r0,r0,#1
  483 000003D2 B9F8            CBNZ             r0,|L0.1044|
  484 000003D4 6808            LDR              r0,[r1,#0]
  485 000003D6 6880            LDR              r0,[r0,#8]
  486 000003D8 F040 0001       ORR              r0,r0,#1
  487 000003DC 680A            LDR              r2,[r1,#0]
  488 000003DE 6090            STR              r0,[r2,#8]
  489 000003E0 4807            LDR              r0,|L0.1024|
  490 000003E2 6800            LDR              r0,[r0,#0]  ; SystemCoreClock
  491 000003E4 4A07            LDR              r2,|L0.1028|
  492 000003E6 FBB0 F0F2       UDIV             r0,r0,r2
  493 000003EA EB00 0040       ADD              r0,r0,r0,LSL #1
  494 000003EE 9000            STR              r0,[sp,#0]
  495 000003F0 E00D            B                |L0.1038|
  496 000003F2 00 00           DCW              0x0000
  497 000003F4         |L0.1012|
  498 000003F4 40012304        DCD              0x40012304
  499 000003F8         |L0.1016|
  500 000003F8 40012000        DCD              0x40012000



ARM Macro Assembler    Page 10 


  501 000003FC         |L0.1020|
  502 000003FC 0F000001        DCD              0x0f000001
  503 00000400         |L0.1024|
  504 00000400 00000000        DCD              SystemCoreClock
  505 00000404         |L0.1028|
  506 00000404 000F4240        DCD              0x000f4240
  507 00000408         |L0.1032|
  508 00000408 9800            LDR              r0,[sp,#0]
  509 0000040A 1E40            SUBS             r0,r0,#1
  510 0000040C 9000            STR              r0,[sp,#0]
  511 0000040E         |L0.1038|
  512 0000040E 9800            LDR              r0,[sp,#0]
  513 00000410 2800            CMP              r0,#0
  514 00000412 D1F9            BNE              |L0.1032|
  515 00000414         |L0.1044|
  516 00000414 6808            LDR              r0,[r1,#0]
  517 00000416 6840            LDR              r0,[r0,#4]
  518 00000418 F040 6080       ORR              r0,r0,#0x4000000
  519 0000041C 680A            LDR              r2,[r1,#0]
  520 0000041E 6050            STR              r0,[r2,#4]
  521 00000420 6808            LDR              r0,[r1,#0]
  522 00000422 6840            LDR              r0,[r0,#4]
  523 00000424 F040 0020       ORR              r0,r0,#0x20
  524 00000428 680A            LDR              r2,[r1,#0]
  525 0000042A 6050            STR              r0,[r2,#4]
  526 0000042C BF00            NOP
  527 0000042E 2000            MOVS             r0,#0
  528 00000430 F881 003C       STRB             r0,[r1,#0x3c]
  529 00000434 BF00            NOP
  530 00000436 48FE            LDR              r0,|L0.2096|
  531 00000438 6800            LDR              r0,[r0,#0]
  532 0000043A F000 001F       AND              r0,r0,#0x1f
  533 0000043E B958            CBNZ             r0,|L0.1112|
  534 00000440 6808            LDR              r0,[r1,#0]
  535 00000442 6880            LDR              r0,[r0,#8]
  536 00000444 F000 5040       AND              r0,r0,#0x30000000
  537 00000448 B9A8            CBNZ             r0,|L0.1142|
  538 0000044A 6808            LDR              r0,[r1,#0]
  539 0000044C 6880            LDR              r0,[r0,#8]
  540 0000044E F040 4080       ORR              r0,r0,#0x40000000
  541 00000452 680A            LDR              r2,[r1,#0]
  542 00000454 6090            STR              r0,[r2,#8]
  543 00000456 E00E            B                |L0.1142|
  544 00000458         |L0.1112|
  545 00000458 4AF6            LDR              r2,|L0.2100|
  546 0000045A 6808            LDR              r0,[r1,#0]
  547 0000045C 4290            CMP              r0,r2
  548 0000045E D10A            BNE              |L0.1142|
  549 00000460 6808            LDR              r0,[r1,#0]
  550 00000462 6880            LDR              r0,[r0,#8]
  551 00000464 F000 5040       AND              r0,r0,#0x30000000
  552 00000468 B928            CBNZ             r0,|L0.1142|
  553 0000046A 6808            LDR              r0,[r1,#0]
  554 0000046C 6880            LDR              r0,[r0,#8]
  555 0000046E F040 4080       ORR              r0,r0,#0x40000000
  556 00000472 680A            LDR              r2,[r1,#0]
  557 00000474 6090            STR              r0,[r2,#8]
  558 00000476         |L0.1142|
  559 00000476 2000            MOVS             r0,#0



ARM Macro Assembler    Page 11 


  560 00000478 E795            B                |L0.934|
  561 0000047A                 ENDP
  562 0000047A         
  563 0000047A         HAL_ADC_Stop_IT
                               PROC
  564 0000047A 4601            MOV              r1,r0
  565 0000047C 6808            LDR              r0,[r1,#0]
  566 0000047E 6840            LDR              r0,[r0,#4]
  567 00000480 F020 0020       BIC              r0,r0,#0x20
  568 00000484 680A            LDR              r2,[r1,#0]
  569 00000486 6050            STR              r0,[r2,#4]
  570 00000488 6808            LDR              r0,[r1,#0]
  571 0000048A 6840            LDR              r0,[r0,#4]
  572 0000048C F020 0080       BIC              r0,r0,#0x80
  573 00000490 680A            LDR              r2,[r1,#0]
  574 00000492 6050            STR              r0,[r2,#4]
  575 00000494 6808            LDR              r0,[r1,#0]
  576 00000496 6880            LDR              r0,[r0,#8]
  577 00000498 F020 0001       BIC              r0,r0,#1
  578 0000049C 680A            LDR              r2,[r1,#0]
  579 0000049E 6090            STR              r0,[r2,#8]
  580 000004A0 2001            MOVS             r0,#1
  581 000004A2 F881 003D       STRB             r0,[r1,#0x3d]
  582 000004A6 2000            MOVS             r0,#0
  583 000004A8 4770            BX               lr
  584 000004AA                 ENDP
  585 000004AA         
  586 000004AA         HAL_ADC_ErrorCallback
                               PROC
  587 000004AA 4770            BX               lr
  588 000004AC                 ENDP
  589 000004AC         
  590 000004AC         HAL_ADC_LevelOutOfWindowCallback
                               PROC
  591 000004AC 4770            BX               lr
  592 000004AE                 ENDP
  593 000004AE         
  594 000004AE         HAL_ADC_ConvCpltCallback
                               PROC
  595 000004AE 4770            BX               lr
  596 000004B0                 ENDP
  597 000004B0         
  598 000004B0         HAL_ADC_IRQHandler
                               PROC
  599 000004B0 B570            PUSH             {r4-r6,lr}
  600 000004B2 4604            MOV              r4,r0
  601 000004B4 2500            MOVS             r5,#0
  602 000004B6 2600            MOVS             r6,#0
  603 000004B8 6820            LDR              r0,[r4,#0]
  604 000004BA 6800            LDR              r0,[r0,#0]
  605 000004BC F3C0 0540       UBFX             r5,r0,#1,#1
  606 000004C0 6820            LDR              r0,[r4,#0]
  607 000004C2 6840            LDR              r0,[r0,#4]
  608 000004C4 F3C0 1640       UBFX             r6,r0,#5,#1
  609 000004C8 2D00            CMP              r5,#0
  610 000004CA D03E            BEQ              |L0.1354|
  611 000004CC 2E00            CMP              r6,#0
  612 000004CE D03C            BEQ              |L0.1354|
  613 000004D0 F894 003D       LDRB             r0,[r4,#0x3d]



ARM Macro Assembler    Page 12 


  614 000004D4 2825            CMP              r0,#0x25
  615 000004D6 D103            BNE              |L0.1248|
  616 000004D8 2035            MOVS             r0,#0x35
  617 000004DA F884 003D       STRB             r0,[r4,#0x3d]
  618 000004DE E002            B                |L0.1254|
  619 000004E0         |L0.1248|
  620 000004E0 2015            MOVS             r0,#0x15
  621 000004E2 F884 003D       STRB             r0,[r4,#0x3d]
  622 000004E6         |L0.1254|
  623 000004E6 69A0            LDR              r0,[r4,#0x18]
  624 000004E8 BB40            CBNZ             r0,|L0.1340|
  625 000004EA 6820            LDR              r0,[r4,#0]
  626 000004EC 6880            LDR              r0,[r0,#8]
  627 000004EE F000 5040       AND              r0,r0,#0x30000000
  628 000004F2 BB18            CBNZ             r0,|L0.1340|
  629 000004F4 6960            LDR              r0,[r4,#0x14]
  630 000004F6 B960            CBNZ             r0,|L0.1298|
  631 000004F8 6820            LDR              r0,[r4,#0]
  632 000004FA 6840            LDR              r0,[r0,#4]
  633 000004FC F020 0020       BIC              r0,r0,#0x20
  634 00000500 6821            LDR              r1,[r4,#0]
  635 00000502 6048            STR              r0,[r1,#4]
  636 00000504 6820            LDR              r0,[r4,#0]
  637 00000506 6840            LDR              r0,[r0,#4]
  638 00000508 F020 6080       BIC              r0,r0,#0x4000000
  639 0000050C 6821            LDR              r1,[r4,#0]
  640 0000050E 6048            STR              r0,[r1,#4]
  641 00000510 E014            B                |L0.1340|
  642 00000512         |L0.1298|
  643 00000512 6B60            LDR              r0,[r4,#0x34]
  644 00000514 B908            CBNZ             r0,|L0.1306|
  645 00000516 6A20            LDR              r0,[r4,#0x20]
  646 00000518 6360            STR              r0,[r4,#0x34]
  647 0000051A         |L0.1306|
  648 0000051A 6B60            LDR              r0,[r4,#0x34]
  649 0000051C 1E40            SUBS             r0,r0,#1
  650 0000051E 6360            STR              r0,[r4,#0x34]
  651 00000520 6B60            LDR              r0,[r4,#0x34]
  652 00000522 B958            CBNZ             r0,|L0.1340|
  653 00000524 6820            LDR              r0,[r4,#0]
  654 00000526 6840            LDR              r0,[r0,#4]
  655 00000528 F020 0020       BIC              r0,r0,#0x20
  656 0000052C 6821            LDR              r1,[r4,#0]
  657 0000052E 6048            STR              r0,[r1,#4]
  658 00000530 6820            LDR              r0,[r4,#0]
  659 00000532 6840            LDR              r0,[r0,#4]
  660 00000534 F020 6080       BIC              r0,r0,#0x4000000
  661 00000538 6821            LDR              r1,[r4,#0]
  662 0000053A 6048            STR              r0,[r1,#4]
  663 0000053C         |L0.1340|
  664 0000053C 4620            MOV              r0,r4
  665 0000053E F7FF FFFE       BL               HAL_ADC_ConvCpltCallback
  666 00000542 F06F 0002       MVN              r0,#2
  667 00000546 6821            LDR              r1,[r4,#0]
  668 00000548 6008            STR              r0,[r1,#0]
  669 0000054A         |L0.1354|
  670 0000054A 6820            LDR              r0,[r4,#0]
  671 0000054C 6800            LDR              r0,[r0,#0]
  672 0000054E F3C0 0580       UBFX             r5,r0,#2,#1



ARM Macro Assembler    Page 13 


  673 00000552 6820            LDR              r0,[r4,#0]
  674 00000554 6840            LDR              r0,[r0,#4]
  675 00000556 F3C0 16C0       UBFX             r6,r0,#7,#1
  676 0000055A B355            CBZ              r5,|L0.1458|
  677 0000055C B34E            CBZ              r6,|L0.1458|
  678 0000055E F894 003D       LDRB             r0,[r4,#0x3d]
  679 00000562 2815            CMP              r0,#0x15
  680 00000564 D103            BNE              |L0.1390|
  681 00000566 2035            MOVS             r0,#0x35
  682 00000568 F884 003D       STRB             r0,[r4,#0x3d]
  683 0000056C E002            B                |L0.1396|
  684 0000056E         |L0.1390|
  685 0000056E 2025            MOVS             r0,#0x25
  686 00000570 F884 003D       STRB             r0,[r4,#0x3d]
  687 00000574         |L0.1396|
  688 00000574 6820            LDR              r0,[r4,#0]
  689 00000576 6840            LDR              r0,[r0,#4]
  690 00000578 2101            MOVS             r1,#1
  691 0000057A EA21 2590       BIC              r5,r1,r0,LSR #10
  692 0000057E 6820            LDR              r0,[r4,#0]
  693 00000580 6880            LDR              r0,[r0,#8]
  694 00000582 F400 1040       AND              r0,r0,#0x300000
  695 00000586 B908            CBNZ             r0,|L0.1420|
  696 00000588 2001            MOVS             r0,#1
  697 0000058A E000            B                |L0.1422|
  698 0000058C         |L0.1420|
  699 0000058C 2000            MOVS             r0,#0
  700 0000058E         |L0.1422|
  701 0000058E 4606            MOV              r6,r0
  702 00000590 69A0            LDR              r0,[r4,#0x18]
  703 00000592 B100            CBZ              r0,|L0.1430|
  704 00000594 B135            CBZ              r5,|L0.1444|
  705 00000596         |L0.1430|
  706 00000596 B12E            CBZ              r6,|L0.1444|
  707 00000598 6820            LDR              r0,[r4,#0]
  708 0000059A 6840            LDR              r0,[r0,#4]
  709 0000059C F020 0080       BIC              r0,r0,#0x80
  710 000005A0 6821            LDR              r1,[r4,#0]
  711 000005A2 6048            STR              r0,[r1,#4]
  712 000005A4         |L0.1444|
  713 000005A4 4620            MOV              r0,r4
  714 000005A6 F7FF FFFE       BL               HAL_ADCEx_InjectedConvCpltCallb
ack
  715 000005AA F06F 0004       MVN              r0,#4
  716 000005AE 6821            LDR              r1,[r4,#0]
  717 000005B0 6008            STR              r0,[r1,#0]
  718 000005B2         |L0.1458|
  719 000005B2 6820            LDR              r0,[r4,#0]
  720 000005B4 6800            LDR              r0,[r0,#0]
  721 000005B6 F000 0501       AND              r5,r0,#1
  722 000005BA 6820            LDR              r0,[r4,#0]
  723 000005BC 6840            LDR              r0,[r0,#4]
  724 000005BE F3C0 1680       UBFX             r6,r0,#6,#1
  725 000005C2 B155            CBZ              r5,|L0.1498|
  726 000005C4 B14E            CBZ              r6,|L0.1498|
  727 000005C6 2006            MOVS             r0,#6
  728 000005C8 F884 003D       STRB             r0,[r4,#0x3d]
  729 000005CC F06F 0001       MVN              r0,#1
  730 000005D0 6821            LDR              r1,[r4,#0]



ARM Macro Assembler    Page 14 


  731 000005D2 6008            STR              r0,[r1,#0]
  732 000005D4 4620            MOV              r0,r4
  733 000005D6 F7FF FFFE       BL               HAL_ADC_LevelOutOfWindowCallbac
k
  734 000005DA         |L0.1498|
  735 000005DA 6820            LDR              r0,[r4,#0]
  736 000005DC 6800            LDR              r0,[r0,#0]
  737 000005DE F3C0 1540       UBFX             r5,r0,#5,#1
  738 000005E2 6820            LDR              r0,[r4,#0]
  739 000005E4 6840            LDR              r0,[r0,#4]
  740 000005E6 F3C0 6680       UBFX             r6,r0,#26,#1
  741 000005EA B175            CBZ              r5,|L0.1546|
  742 000005EC B16E            CBZ              r6,|L0.1546|
  743 000005EE 2004            MOVS             r0,#4
  744 000005F0 F884 003D       STRB             r0,[r4,#0x3d]
  745 000005F4 6C20            LDR              r0,[r4,#0x40]
  746 000005F6 F040 0001       ORR              r0,r0,#1
  747 000005FA 6420            STR              r0,[r4,#0x40]
  748 000005FC F06F 0020       MVN              r0,#0x20
  749 00000600 6821            LDR              r1,[r4,#0]
  750 00000602 6008            STR              r0,[r1,#0]
  751 00000604 4620            MOV              r0,r4
  752 00000606 F7FF FFFE       BL               HAL_ADC_ErrorCallback
  753 0000060A         |L0.1546|
  754 0000060A BD70            POP              {r4-r6,pc}
  755 0000060C                 ENDP
  756 0000060C         
  757 0000060C         ADC_DMAError
                               PROC
  758 0000060C B570            PUSH             {r4-r6,lr}
  759 0000060E 4605            MOV              r5,r0
  760 00000610 6BAC            LDR              r4,[r5,#0x38]
  761 00000612 2004            MOVS             r0,#4
  762 00000614 F884 003D       STRB             r0,[r4,#0x3d]
  763 00000618 6C20            LDR              r0,[r4,#0x40]
  764 0000061A F040 0002       ORR              r0,r0,#2
  765 0000061E 6420            STR              r0,[r4,#0x40]
  766 00000620 4620            MOV              r0,r4
  767 00000622 F7FF FFFE       BL               HAL_ADC_ErrorCallback
  768 00000626 BD70            POP              {r4-r6,pc}
  769 00000628                 ENDP
  770 00000628         
  771 00000628         HAL_ADC_ConvHalfCpltCallback
                               PROC
  772 00000628 4770            BX               lr
  773 0000062A                 ENDP
  774 0000062A         
  775 0000062A         ADC_DMAHalfConvCplt
                               PROC
  776 0000062A B570            PUSH             {r4-r6,lr}
  777 0000062C 4604            MOV              r4,r0
  778 0000062E 6BA5            LDR              r5,[r4,#0x38]
  779 00000630 4628            MOV              r0,r5
  780 00000632 F7FF FFFE       BL               HAL_ADC_ConvHalfCpltCallback
  781 00000636 BD70            POP              {r4-r6,pc}
  782 00000638                 ENDP
  783 00000638         
  784 00000638         ADC_DMAConvCplt
                               PROC



ARM Macro Assembler    Page 15 


  785 00000638 B570            PUSH             {r4-r6,lr}
  786 0000063A 4605            MOV              r5,r0
  787 0000063C 6BAC            LDR              r4,[r5,#0x38]
  788 0000063E F894 003D       LDRB             r0,[r4,#0x3d]
  789 00000642 2825            CMP              r0,#0x25
  790 00000644 D103            BNE              |L0.1614|
  791 00000646 2035            MOVS             r0,#0x35
  792 00000648 F884 003D       STRB             r0,[r4,#0x3d]
  793 0000064C E002            B                |L0.1620|
  794 0000064E         |L0.1614|
  795 0000064E 2015            MOVS             r0,#0x15
  796 00000650 F884 003D       STRB             r0,[r4,#0x3d]
  797 00000654         |L0.1620|
  798 00000654 4620            MOV              r0,r4
  799 00000656 F7FF FFFE       BL               HAL_ADC_ConvCpltCallback
  800 0000065A BD70            POP              {r4-r6,pc}
  801 0000065C                 ENDP
  802 0000065C         
  803 0000065C         HAL_ADC_Start_DMA
                               PROC
  804 0000065C B5F8            PUSH             {r3-r7,lr}
  805 0000065E 4604            MOV              r4,r0
  806 00000660 460D            MOV              r5,r1
  807 00000662 4616            MOV              r6,r2
  808 00000664 2000            MOVS             r0,#0
  809 00000666 9000            STR              r0,[sp,#0]
  810 00000668 BF00            NOP
  811 0000066A F894 003C       LDRB             r0,[r4,#0x3c]
  812 0000066E 2801            CMP              r0,#1
  813 00000670 D101            BNE              |L0.1654|
  814 00000672 2002            MOVS             r0,#2
  815 00000674         |L0.1652|
  816 00000674 BDF8            POP              {r3-r7,pc}
  817 00000676         |L0.1654|
  818 00000676 2001            MOVS             r0,#1
  819 00000678 F884 003C       STRB             r0,[r4,#0x3c]
  820 0000067C BF00            NOP
  821 0000067E 6820            LDR              r0,[r4,#0]
  822 00000680 6840            LDR              r0,[r0,#4]
  823 00000682 F040 6080       ORR              r0,r0,#0x4000000
  824 00000686 6821            LDR              r1,[r4,#0]
  825 00000688 6048            STR              r0,[r1,#4]
  826 0000068A 6820            LDR              r0,[r4,#0]
  827 0000068C 6880            LDR              r0,[r0,#8]
  828 0000068E F440 7080       ORR              r0,r0,#0x100
  829 00000692 6821            LDR              r1,[r4,#0]
  830 00000694 6088            STR              r0,[r1,#8]
  831 00000696 4868            LDR              r0,|L0.2104|
  832 00000698 6BA1            LDR              r1,[r4,#0x38]
  833 0000069A 63C8            STR              r0,[r1,#0x3c]
  834 0000069C 4867            LDR              r0,|L0.2108|
  835 0000069E 6BA1            LDR              r1,[r4,#0x38]
  836 000006A0 6408            STR              r0,[r1,#0x40]
  837 000006A2 4867            LDR              r0,|L0.2112|
  838 000006A4 6BA1            LDR              r1,[r4,#0x38]
  839 000006A6 6488            STR              r0,[r1,#0x48]
  840 000006A8 6822            LDR              r2,[r4,#0]
  841 000006AA F102 014C       ADD              r1,r2,#0x4c
  842 000006AE 4633            MOV              r3,r6



ARM Macro Assembler    Page 16 


  843 000006B0 462A            MOV              r2,r5
  844 000006B2 6BA0            LDR              r0,[r4,#0x38]
  845 000006B4 F7FF FFFE       BL               HAL_DMA_Start_IT
  846 000006B8 2012            MOVS             r0,#0x12
  847 000006BA F884 003D       STRB             r0,[r4,#0x3d]
  848 000006BE BF00            NOP
  849 000006C0 2000            MOVS             r0,#0
  850 000006C2 F884 003C       STRB             r0,[r4,#0x3c]
  851 000006C6 BF00            NOP
  852 000006C8 6820            LDR              r0,[r4,#0]
  853 000006CA 6880            LDR              r0,[r0,#8]
  854 000006CC F000 0001       AND              r0,r0,#1
  855 000006D0 B9A0            CBNZ             r0,|L0.1788|
  856 000006D2 6820            LDR              r0,[r4,#0]
  857 000006D4 6880            LDR              r0,[r0,#8]
  858 000006D6 F040 0001       ORR              r0,r0,#1
  859 000006DA 6821            LDR              r1,[r4,#0]
  860 000006DC 6088            STR              r0,[r1,#8]
  861 000006DE 4859            LDR              r0,|L0.2116|
  862 000006E0 6800            LDR              r0,[r0,#0]  ; SystemCoreClock
  863 000006E2 4959            LDR              r1,|L0.2120|
  864 000006E4 FBB0 F0F1       UDIV             r0,r0,r1
  865 000006E8 EB00 0040       ADD              r0,r0,r0,LSL #1
  866 000006EC 9000            STR              r0,[sp,#0]
  867 000006EE E002            B                |L0.1782|
  868 000006F0         |L0.1776|
  869 000006F0 9800            LDR              r0,[sp,#0]
  870 000006F2 1E40            SUBS             r0,r0,#1
  871 000006F4 9000            STR              r0,[sp,#0]
  872 000006F6         |L0.1782|
  873 000006F6 9800            LDR              r0,[sp,#0]
  874 000006F8 2800            CMP              r0,#0
  875 000006FA D1F9            BNE              |L0.1776|
  876 000006FC         |L0.1788|
  877 000006FC 6820            LDR              r0,[r4,#0]
  878 000006FE 6880            LDR              r0,[r0,#8]
  879 00000700 F000 5040       AND              r0,r0,#0x30000000
  880 00000704 B928            CBNZ             r0,|L0.1810|
  881 00000706 6820            LDR              r0,[r4,#0]
  882 00000708 6880            LDR              r0,[r0,#8]
  883 0000070A F040 4080       ORR              r0,r0,#0x40000000
  884 0000070E 6821            LDR              r1,[r4,#0]
  885 00000710 6088            STR              r0,[r1,#8]
  886 00000712         |L0.1810|
  887 00000712 2000            MOVS             r0,#0
  888 00000714 E7AE            B                |L0.1652|
  889 00000716                 ENDP
  890 00000716         
  891 00000716         HAL_ADC_Stop_DMA
                               PROC
  892 00000716 B510            PUSH             {r4,lr}
  893 00000718 4604            MOV              r4,r0
  894 0000071A 6820            LDR              r0,[r4,#0]
  895 0000071C 6880            LDR              r0,[r0,#8]
  896 0000071E F020 0001       BIC              r0,r0,#1
  897 00000722 6821            LDR              r1,[r4,#0]
  898 00000724 6088            STR              r0,[r1,#8]
  899 00000726 6820            LDR              r0,[r4,#0]
  900 00000728 6840            LDR              r0,[r0,#4]



ARM Macro Assembler    Page 17 


  901 0000072A F020 6080       BIC              r0,r0,#0x4000000
  902 0000072E 6821            LDR              r1,[r4,#0]
  903 00000730 6048            STR              r0,[r1,#4]
  904 00000732 6820            LDR              r0,[r4,#0]
  905 00000734 6880            LDR              r0,[r0,#8]
  906 00000736 F420 7080       BIC              r0,r0,#0x100
  907 0000073A 6821            LDR              r1,[r4,#0]
  908 0000073C 6088            STR              r0,[r1,#8]
  909 0000073E 6BA0            LDR              r0,[r4,#0x38]
  910 00000740 F7FF FFFE       BL               HAL_DMA_Abort
  911 00000744 2001            MOVS             r0,#1
  912 00000746 F884 003D       STRB             r0,[r4,#0x3d]
  913 0000074A 2000            MOVS             r0,#0
  914 0000074C BD10            POP              {r4,pc}
  915 0000074E                 ENDP
  916 0000074E         
  917 0000074E         HAL_ADC_GetValue
                               PROC
  918 0000074E 4601            MOV              r1,r0
  919 00000750 6808            LDR              r0,[r1,#0]
  920 00000752 6CC0            LDR              r0,[r0,#0x4c]
  921 00000754 4770            BX               lr
  922 00000756                 ENDP
  923 00000756         
  924 00000756         HAL_ADC_ConfigChannel
                               PROC
  925 00000756 B518            PUSH             {r3,r4,lr}
  926 00000758 4602            MOV              r2,r0
  927 0000075A 2000            MOVS             r0,#0
  928 0000075C 9000            STR              r0,[sp,#0]
  929 0000075E BF00            NOP
  930 00000760 F892 003C       LDRB             r0,[r2,#0x3c]
  931 00000764 2801            CMP              r0,#1
  932 00000766 D101            BNE              |L0.1900|
  933 00000768 2002            MOVS             r0,#2
  934 0000076A         |L0.1898|
  935 0000076A BD18            POP              {r3,r4,pc}
  936 0000076C         |L0.1900|
  937 0000076C 2001            MOVS             r0,#1
  938 0000076E F882 003C       STRB             r0,[r2,#0x3c]
  939 00000772 BF00            NOP
  940 00000774 6808            LDR              r0,[r1,#0]
  941 00000776 2809            CMP              r0,#9
  942 00000778 D916            BLS              |L0.1960|
  943 0000077A 6810            LDR              r0,[r2,#0]
  944 0000077C 68C0            LDR              r0,[r0,#0xc]
  945 0000077E 780B            LDRB             r3,[r1,#0]
  946 00000780 3B0A            SUBS             r3,r3,#0xa
  947 00000782 EB03 0443       ADD              r4,r3,r3,LSL #1
  948 00000786 2307            MOVS             r3,#7
  949 00000788 40A3            LSLS             r3,r3,r4
  950 0000078A 4398            BICS             r0,r0,r3
  951 0000078C 6813            LDR              r3,[r2,#0]
  952 0000078E 60D8            STR              r0,[r3,#0xc]
  953 00000790 780B            LDRB             r3,[r1,#0]
  954 00000792 3B0A            SUBS             r3,r3,#0xa
  955 00000794 EB03 0343       ADD              r3,r3,r3,LSL #1
  956 00000798 6888            LDR              r0,[r1,#8]
  957 0000079A 4098            LSLS             r0,r0,r3



ARM Macro Assembler    Page 18 


  958 0000079C 6813            LDR              r3,[r2,#0]
  959 0000079E 68DB            LDR              r3,[r3,#0xc]
  960 000007A0 4318            ORRS             r0,r0,r3
  961 000007A2 6813            LDR              r3,[r2,#0]
  962 000007A4 60D8            STR              r0,[r3,#0xc]
  963 000007A6 E013            B                |L0.2000|
  964 000007A8         |L0.1960|
  965 000007A8 6810            LDR              r0,[r2,#0]
  966 000007AA 6900            LDR              r0,[r0,#0x10]
  967 000007AC 780B            LDRB             r3,[r1,#0]
  968 000007AE EB03 0443       ADD              r4,r3,r3,LSL #1
  969 000007B2 2307            MOVS             r3,#7
  970 000007B4 40A3            LSLS             r3,r3,r4
  971 000007B6 4398            BICS             r0,r0,r3
  972 000007B8 6813            LDR              r3,[r2,#0]
  973 000007BA 6118            STR              r0,[r3,#0x10]
  974 000007BC 780B            LDRB             r3,[r1,#0]
  975 000007BE EB03 0343       ADD              r3,r3,r3,LSL #1
  976 000007C2 6888            LDR              r0,[r1,#8]
  977 000007C4 4098            LSLS             r0,r0,r3
  978 000007C6 6813            LDR              r3,[r2,#0]
  979 000007C8 691B            LDR              r3,[r3,#0x10]
  980 000007CA 4318            ORRS             r0,r0,r3
  981 000007CC 6813            LDR              r3,[r2,#0]
  982 000007CE 6118            STR              r0,[r3,#0x10]
  983 000007D0         |L0.2000|
  984 000007D0 6848            LDR              r0,[r1,#4]
  985 000007D2 2807            CMP              r0,#7
  986 000007D4 D217            BCS              |L0.2054|
  987 000007D6 6810            LDR              r0,[r2,#0]
  988 000007D8 6B40            LDR              r0,[r0,#0x34]
  989 000007DA 790B            LDRB             r3,[r1,#4]
  990 000007DC 1E5B            SUBS             r3,r3,#1
  991 000007DE EB03 0483       ADD              r4,r3,r3,LSL #2
  992 000007E2 231F            MOVS             r3,#0x1f
  993 000007E4 40A3            LSLS             r3,r3,r4
  994 000007E6 4398            BICS             r0,r0,r3
  995 000007E8 6813            LDR              r3,[r2,#0]
  996 000007EA 6358            STR              r0,[r3,#0x34]
  997 000007EC 8808            LDRH             r0,[r1,#0]
  998 000007EE B280            UXTH             r0,r0
  999 000007F0 790B            LDRB             r3,[r1,#4]
 1000 000007F2 1E5B            SUBS             r3,r3,#1
 1001 000007F4 EB03 0383       ADD              r3,r3,r3,LSL #2
 1002 000007F8 4098            LSLS             r0,r0,r3
 1003 000007FA 6813            LDR              r3,[r2,#0]
 1004 000007FC 6B5B            LDR              r3,[r3,#0x34]
 1005 000007FE 4318            ORRS             r0,r0,r3
 1006 00000800 6813            LDR              r3,[r2,#0]
 1007 00000802 6358            STR              r0,[r3,#0x34]
 1008 00000804 E040            B                |L0.2184|
 1009 00000806         |L0.2054|
 1010 00000806 6848            LDR              r0,[r1,#4]
 1011 00000808 280D            CMP              r0,#0xd
 1012 0000080A D226            BCS              |L0.2138|
 1013 0000080C 6810            LDR              r0,[r2,#0]
 1014 0000080E 6B00            LDR              r0,[r0,#0x30]
 1015 00000810 790B            LDRB             r3,[r1,#4]
 1016 00000812 1FDB            SUBS             r3,r3,#7



ARM Macro Assembler    Page 19 


 1017 00000814 EB03 0483       ADD              r4,r3,r3,LSL #2
 1018 00000818 231F            MOVS             r3,#0x1f
 1019 0000081A 40A3            LSLS             r3,r3,r4
 1020 0000081C 4398            BICS             r0,r0,r3
 1021 0000081E 6813            LDR              r3,[r2,#0]
 1022 00000820 6318            STR              r0,[r3,#0x30]
 1023 00000822 8808            LDRH             r0,[r1,#0]
 1024 00000824 B280            UXTH             r0,r0
 1025 00000826 790B            LDRB             r3,[r1,#4]
 1026 00000828 1FDB            SUBS             r3,r3,#7
 1027 0000082A EB03 0383       ADD              r3,r3,r3,LSL #2
 1028 0000082E E00D            B                |L0.2124|
 1029 00000830         |L0.2096|
 1030 00000830 40012304        DCD              0x40012304
 1031 00000834         |L0.2100|
 1032 00000834 40012000        DCD              0x40012000
 1033 00000838         |L0.2104|
 1034 00000838 00000000        DCD              ADC_DMAConvCplt
 1035 0000083C         |L0.2108|
 1036 0000083C 00000000        DCD              ADC_DMAHalfConvCplt
 1037 00000840         |L0.2112|
 1038 00000840 00000000        DCD              ADC_DMAError
 1039 00000844         |L0.2116|
 1040 00000844 00000000        DCD              SystemCoreClock
 1041 00000848         |L0.2120|
 1042 00000848 000F4240        DCD              0x000f4240
 1043 0000084C         |L0.2124|
 1044 0000084C 4098            LSLS             r0,r0,r3
 1045 0000084E 6813            LDR              r3,[r2,#0]
 1046 00000850 6B1B            LDR              r3,[r3,#0x30]
 1047 00000852 4318            ORRS             r0,r0,r3
 1048 00000854 6813            LDR              r3,[r2,#0]
 1049 00000856 6318            STR              r0,[r3,#0x30]
 1050 00000858 E016            B                |L0.2184|
 1051 0000085A         |L0.2138|
 1052 0000085A 6810            LDR              r0,[r2,#0]
 1053 0000085C 6AC0            LDR              r0,[r0,#0x2c]
 1054 0000085E 790B            LDRB             r3,[r1,#4]
 1055 00000860 3B0D            SUBS             r3,r3,#0xd
 1056 00000862 EB03 0483       ADD              r4,r3,r3,LSL #2
 1057 00000866 231F            MOVS             r3,#0x1f
 1058 00000868 40A3            LSLS             r3,r3,r4
 1059 0000086A 4398            BICS             r0,r0,r3
 1060 0000086C 6813            LDR              r3,[r2,#0]
 1061 0000086E 62D8            STR              r0,[r3,#0x2c]
 1062 00000870 8808            LDRH             r0,[r1,#0]
 1063 00000872 B280            UXTH             r0,r0
 1064 00000874 790B            LDRB             r3,[r1,#4]
 1065 00000876 3B0D            SUBS             r3,r3,#0xd
 1066 00000878 EB03 0383       ADD              r3,r3,r3,LSL #2
 1067 0000087C 4098            LSLS             r0,r0,r3
 1068 0000087E 6813            LDR              r3,[r2,#0]
 1069 00000880 6ADB            LDR              r3,[r3,#0x2c]
 1070 00000882 4318            ORRS             r0,r0,r3
 1071 00000884 6813            LDR              r3,[r2,#0]
 1072 00000886 62D8            STR              r0,[r3,#0x2c]
 1073 00000888         |L0.2184|
 1074 00000888 4B40            LDR              r3,|L0.2444|
 1075 0000088A 6810            LDR              r0,[r2,#0]



ARM Macro Assembler    Page 20 


 1076 0000088C 4298            CMP              r0,r3
 1077 0000088E D108            BNE              |L0.2210|
 1078 00000890 6808            LDR              r0,[r1,#0]
 1079 00000892 2812            CMP              r0,#0x12
 1080 00000894 D105            BNE              |L0.2210|
 1081 00000896 483E            LDR              r0,|L0.2448|
 1082 00000898 6800            LDR              r0,[r0,#0]
 1083 0000089A F440 0080       ORR              r0,r0,#0x400000
 1084 0000089E F8C3 0304       STR              r0,[r3,#0x304]
 1085 000008A2         |L0.2210|
 1086 000008A2 4B3A            LDR              r3,|L0.2444|
 1087 000008A4 6810            LDR              r0,[r2,#0]
 1088 000008A6 4298            CMP              r0,r3
 1089 000008A8 D120            BNE              |L0.2284|
 1090 000008AA 4B3A            LDR              r3,|L0.2452|
 1091 000008AC 6808            LDR              r0,[r1,#0]
 1092 000008AE 4298            CMP              r0,r3
 1093 000008B0 D002            BEQ              |L0.2232|
 1094 000008B2 6808            LDR              r0,[r1,#0]
 1095 000008B4 2811            CMP              r0,#0x11
 1096 000008B6 D119            BNE              |L0.2284|
 1097 000008B8         |L0.2232|
 1098 000008B8 4835            LDR              r0,|L0.2448|
 1099 000008BA 6800            LDR              r0,[r0,#0]
 1100 000008BC F440 0000       ORR              r0,r0,#0x800000
 1101 000008C0 4B33            LDR              r3,|L0.2448|
 1102 000008C2 6018            STR              r0,[r3,#0]
 1103 000008C4 4B33            LDR              r3,|L0.2452|
 1104 000008C6 6808            LDR              r0,[r1,#0]
 1105 000008C8 4298            CMP              r0,r3
 1106 000008CA D10F            BNE              |L0.2284|
 1107 000008CC 4832            LDR              r0,|L0.2456|
 1108 000008CE 6800            LDR              r0,[r0,#0]  ; SystemCoreClock
 1109 000008D0 4B32            LDR              r3,|L0.2460|
 1110 000008D2 FBB0 F0F3       UDIV             r0,r0,r3
 1111 000008D6 EB00 0080       ADD              r0,r0,r0,LSL #2
 1112 000008DA 0040            LSLS             r0,r0,#1
 1113 000008DC 9000            STR              r0,[sp,#0]
 1114 000008DE E002            B                |L0.2278|
 1115 000008E0         |L0.2272|
 1116 000008E0 9800            LDR              r0,[sp,#0]
 1117 000008E2 1E40            SUBS             r0,r0,#1
 1118 000008E4 9000            STR              r0,[sp,#0]
 1119 000008E6         |L0.2278|
 1120 000008E6 9800            LDR              r0,[sp,#0]
 1121 000008E8 2800            CMP              r0,#0
 1122 000008EA D1F9            BNE              |L0.2272|
 1123 000008EC         |L0.2284|
 1124 000008EC BF00            NOP
 1125 000008EE 2000            MOVS             r0,#0
 1126 000008F0 F882 003C       STRB             r0,[r2,#0x3c]
 1127 000008F4 BF00            NOP
 1128 000008F6 BF00            NOP
 1129 000008F8 E737            B                |L0.1898|
 1130 000008FA                 ENDP
 1131 000008FA         
 1132 000008FA         HAL_ADC_AnalogWDGConfig
                               PROC
 1133 000008FA 4602            MOV              r2,r0



ARM Macro Assembler    Page 21 


 1134 000008FC BF00            NOP
 1135 000008FE F892 003C       LDRB             r0,[r2,#0x3c]
 1136 00000902 2801            CMP              r0,#1
 1137 00000904 D101            BNE              |L0.2314|
 1138 00000906 2002            MOVS             r0,#2
 1139 00000908         |L0.2312|
 1140 00000908 4770            BX               lr
 1141 0000090A         |L0.2314|
 1142 0000090A 2001            MOVS             r0,#1
 1143 0000090C F882 003C       STRB             r0,[r2,#0x3c]
 1144 00000910 BF00            NOP
 1145 00000912 6908            LDR              r0,[r1,#0x10]
 1146 00000914 2801            CMP              r0,#1
 1147 00000916 D106            BNE              |L0.2342|
 1148 00000918 6810            LDR              r0,[r2,#0]
 1149 0000091A 6840            LDR              r0,[r0,#4]
 1150 0000091C F040 0040       ORR              r0,r0,#0x40
 1151 00000920 6813            LDR              r3,[r2,#0]
 1152 00000922 6058            STR              r0,[r3,#4]
 1153 00000924 E005            B                |L0.2354|
 1154 00000926         |L0.2342|
 1155 00000926 6810            LDR              r0,[r2,#0]
 1156 00000928 6840            LDR              r0,[r0,#4]
 1157 0000092A F020 0040       BIC              r0,r0,#0x40
 1158 0000092E 6813            LDR              r3,[r2,#0]
 1159 00000930 6058            STR              r0,[r3,#4]
 1160 00000932         |L0.2354|
 1161 00000932 6810            LDR              r0,[r2,#0]
 1162 00000934 6840            LDR              r0,[r0,#4]
 1163 00000936 4B1A            LDR              r3,|L0.2464|
 1164 00000938 4018            ANDS             r0,r0,r3
 1165 0000093A 6813            LDR              r3,[r2,#0]
 1166 0000093C 6058            STR              r0,[r3,#4]
 1167 0000093E 6810            LDR              r0,[r2,#0]
 1168 00000940 6840            LDR              r0,[r0,#4]
 1169 00000942 680B            LDR              r3,[r1,#0]
 1170 00000944 4318            ORRS             r0,r0,r3
 1171 00000946 6813            LDR              r3,[r2,#0]
 1172 00000948 6058            STR              r0,[r3,#4]
 1173 0000094A 6848            LDR              r0,[r1,#4]
 1174 0000094C 6813            LDR              r3,[r2,#0]
 1175 0000094E 6258            STR              r0,[r3,#0x24]
 1176 00000950 6888            LDR              r0,[r1,#8]
 1177 00000952 6813            LDR              r3,[r2,#0]
 1178 00000954 6298            STR              r0,[r3,#0x28]
 1179 00000956 6810            LDR              r0,[r2,#0]
 1180 00000958 6840            LDR              r0,[r0,#4]
 1181 0000095A F020 001F       BIC              r0,r0,#0x1f
 1182 0000095E 6813            LDR              r3,[r2,#0]
 1183 00000960 6058            STR              r0,[r3,#4]
 1184 00000962 6810            LDR              r0,[r2,#0]
 1185 00000964 6840            LDR              r0,[r0,#4]
 1186 00000966 898B            LDRH             r3,[r1,#0xc]
 1187 00000968 B29B            UXTH             r3,r3
 1188 0000096A 4318            ORRS             r0,r0,r3
 1189 0000096C 6813            LDR              r3,[r2,#0]
 1190 0000096E 6058            STR              r0,[r3,#4]
 1191 00000970 BF00            NOP
 1192 00000972 2000            MOVS             r0,#0



ARM Macro Assembler    Page 22 


 1193 00000974 F882 003C       STRB             r0,[r2,#0x3c]
 1194 00000978 BF00            NOP
 1195 0000097A BF00            NOP
 1196 0000097C E7C4            B                |L0.2312|
 1197 0000097E                 ENDP
 1198 0000097E         
 1199 0000097E         HAL_ADC_GetState
                               PROC
 1200 0000097E 4601            MOV              r1,r0
 1201 00000980 F891 003D       LDRB             r0,[r1,#0x3d]
 1202 00000984 4770            BX               lr
 1203 00000986                 ENDP
 1204 00000986         
 1205 00000986         HAL_ADC_GetError
                               PROC
 1206 00000986 4601            MOV              r1,r0
 1207 00000988 6C08            LDR              r0,[r1,#0x40]
 1208 0000098A 4770            BX               lr
 1209 0000098C                 ENDP
 1210 0000098C         
 1211 0000098C         |L0.2444|
 1212 0000098C 40012000        DCD              0x40012000
 1213 00000990         |L0.2448|
 1214 00000990 40012304        DCD              0x40012304
 1215 00000994         |L0.2452|
 1216 00000994 10000012        DCD              0x10000012
 1217 00000998         |L0.2456|
 1218 00000998 00000000        DCD              SystemCoreClock
 1219 0000099C         |L0.2460|
 1220 0000099C 000F4240        DCD              0x000f4240
 1221 000009A0         |L0.2464|
 1222 000009A0 FF3FFDFF        DCD              0xff3ffdff
 1223 000009A4         
 1224 000009A4                 AREA             ||.arm_vfe_header||, DATA, READ
ONLY, NOALLOC, ALIGN=2
 1225 00000000         
 1226 00000000 00000000        DCD              0x00000000
 1227 00000004         
 1228 00000004         ;*** Start embedded assembler ***
 1229 00000004         
 1230 00000004         #line   1                "../bsp/source/platform/hal/mcu
/stm32f4cube/STM32F4xx_HAL_Driver/stm32f4xx_hal_adc.c"
    1 00000004                 AREA             ||.rev16_text||, CODE
    2 00000000                 THUMB
    3 00000000                 EXPORT           |__asm___19_stm32f4xx_hal_adc_c
_52ef8f50____REV16|
    4 00000000         #line   138              "../bsp/include/platform/hal/mc
u/stm32f4cube/CMSIS/core_cmInstr.h"
  138 00000000         |__asm___19_stm32f4xx_hal_adc_c_52ef8f50____REV16|
                               PROC
  139 00000000         #line   139
  139 00000000         
  140 00000000 BA40            rev16            r0, r0
  141 00000002 4770            bx               lr
  142 00000004                 ENDP
  143 00000004                 AREA             ||.revsh_text||, CODE
  144 00000000                 THUMB
  145 00000000                 EXPORT           |__asm___19_stm32f4xx_hal_adc_c
_52ef8f50____REVSH|



ARM Macro Assembler    Page 23 


  146 00000000         #line   153
  153 00000000         |__asm___19_stm32f4xx_hal_adc_c_52ef8f50____REVSH|
                               PROC
  154 00000000         #line   154
  154 00000000         
  155 00000000 BAC0            revsh            r0, r0
  156 00000002 4770            bx               lr
  157 00000004                 ENDP
  158 00000004                 AREA             ||.rrx_text||, CODE
  159 00000000                 THUMB
  160 00000000                 EXPORT           |__asm___19_stm32f4xx_hal_adc_c
_52ef8f50____RRX|
  161 00000000         #line   328
  328 00000000         |__asm___19_stm32f4xx_hal_adc_c_52ef8f50____RRX|
                               PROC
  329 00000000         #line   329
  329 00000000         
  330 00000000 EA4F 0030       rrx              r0, r0
  331 00000004 4770            bx               lr
  332 00000006                 ENDP
  333 00000006         
  334 00000006         ;*** End   embedded assembler ***
  335 00000006         
  336 00000006                 EXPORT           HAL_ADC_MspInit [CODE,WEAK]
  337 00000006                 EXPORT           HAL_ADC_Init [CODE]
  338 00000006                 EXPORT           HAL_ADC_MspDeInit [CODE,WEAK]
  339 00000006                 EXPORT           HAL_ADC_DeInit [CODE]
  340 00000006                 EXPORT           HAL_ADC_Start [CODE]
  341 00000006                 EXPORT           HAL_ADC_Stop [CODE]
  342 00000006                 EXPORT           HAL_ADC_PollForConversion [CODE
]
  343 00000006                 EXPORT           HAL_ADC_PollForEvent [CODE]
  344 00000006                 EXPORT           HAL_ADC_Start_IT [CODE]
  345 00000006                 EXPORT           HAL_ADC_Stop_IT [CODE]
  346 00000006                 EXPORT           HAL_ADC_ErrorCallback [CODE,WEA
K]
  347 00000006                 EXPORT           HAL_ADC_LevelOutOfWindowCallbac
k [CODE,WEAK]
  348 00000006                 EXPORT           HAL_ADC_ConvCpltCallback [CODE,
WEAK]
  349 00000006                 EXPORT           HAL_ADC_IRQHandler [CODE]
  350 00000006                 EXPORT           HAL_ADC_ConvHalfCpltCallback [C
ODE,WEAK]
  351 00000006                 EXPORT           HAL_ADC_Start_DMA [CODE]
  352 00000006                 EXPORT           HAL_ADC_Stop_DMA [CODE]
  353 00000006                 EXPORT           HAL_ADC_GetValue [CODE]
  354 00000006                 EXPORT           HAL_ADC_ConfigChannel [CODE]
  355 00000006                 EXPORT           HAL_ADC_AnalogWDGConfig [CODE]
  356 00000006                 EXPORT           HAL_ADC_GetState [CODE]
  357 00000006                 EXPORT           HAL_ADC_GetError [CODE]
  358 00000006         
  359 00000006                 IMPORT           ||Lib$$Request$$armlib|| [CODE,
WEAK]
  360 00000006                 IMPORT           SystemCoreClock [DATA]
  361 00000006                 IMPORT           HAL_GetTick [CODE]
  362 00000006                 IMPORT           HAL_ADCEx_InjectedConvCpltCallb
ack [CODE]
  363 00000006                 IMPORT           HAL_DMA_Start_IT [CODE]
  364 00000006                 IMPORT           HAL_DMA_Abort [CODE]



ARM Macro Assembler    Page 24 


  365 00000006         
  366 00000006                 KEEP             ADC_Init
  367 00000006                 KEEP             ADC_DMAError
  368 00000006                 KEEP             ADC_DMAHalfConvCplt
  369 00000006                 KEEP             ADC_DMAConvCplt
  370 00000006         
  371 00000006                 ATTR             FILESCOPE
  372 00000006                 ATTR             SETVALUE Tag_ABI_PCS_wchar_t,2
  373 00000006                 ATTR             SETVALUE Tag_ABI_enum_size,1
  374 00000006                 ATTR             SETVALUE Tag_ABI_optimization_g
oals,6
  375 00000006                 ATTR             SETSTRING Tag_conformance,"2.09
"
  376 00000006                 ATTR             SETVALUE AV,18,1
  377 00000006         
  378 00000006                 ASSERT           {ENDIAN} = "little"
  379 00000006                 ASSERT           {INTER} = {TRUE}
  380 00000006                 ASSERT           {ROPI} = {FALSE}
  381 00000006                 ASSERT           {RWPI} = {FALSE}
  382 00000006                 ASSERT           {IEEE_FULL} = {FALSE}
  383 00000006                 ASSERT           {IEEE_PART} = {FALSE}
  384 00000006                 ASSERT           {IEEE_JAVA} = {FALSE}
  385 00000006                 END
Command Line: --debug --xref --diag_suppress=9931 --cpu=Cortex-M4.fp --apcs=int
erwork -o./flash/\stm32f4xx_hal_adc.o -I../../platform/os -IC:\Keil_v5\ARM\RV31
\INC -IC:\Keil_v5\ARM\CMSIS\Include -IC:\Keil_v5\ARM\INC\ST\STM32F4xx --predefi
ne="__UVISION_VERSION SETA 526" --list=./listings/\stm32f4xx_hal_adc.lst ./flas
h/\stm32f4xx_hal_adc.s



ARM Macro Assembler    Page 1 Alphabetic symbol ordering
Relocatable symbols

ADC_DMAConvCplt 00000638

Symbol: ADC_DMAConvCplt
   Definitions
      At line 784 in file ./flash/\stm32f4xx_hal_adc.s
   Uses
      At line 1034 in file ./flash/\stm32f4xx_hal_adc.s
      At line 369 in file ..\bsp\include\platform\hal\mcu\stm32f4cube\CMSIS\cor
e_cmInstr.h

ADC_DMAError 0000060C

Symbol: ADC_DMAError
   Definitions
      At line 757 in file ./flash/\stm32f4xx_hal_adc.s
   Uses
      At line 1038 in file ./flash/\stm32f4xx_hal_adc.s
      At line 367 in file ..\bsp\include\platform\hal\mcu\stm32f4cube\CMSIS\cor
e_cmInstr.h

ADC_DMAHalfConvCplt 0000062A

Symbol: ADC_DMAHalfConvCplt
   Definitions
      At line 775 in file ./flash/\stm32f4xx_hal_adc.s
   Uses
      At line 1036 in file ./flash/\stm32f4xx_hal_adc.s
      At line 368 in file ..\bsp\include\platform\hal\mcu\stm32f4cube\CMSIS\cor
e_cmInstr.h

ADC_Init 00000000

Symbol: ADC_Init
   Definitions
      At line 9 in file ./flash/\stm32f4xx_hal_adc.s
   Uses
      At line 200 in file ./flash/\stm32f4xx_hal_adc.s
      At line 366 in file ..\bsp\include\platform\hal\mcu\stm32f4cube\CMSIS\cor
e_cmInstr.h

HAL_ADC_AnalogWDGConfig 000008FA

Symbol: HAL_ADC_AnalogWDGConfig
   Definitions
      At line 1132 in file ./flash/\stm32f4xx_hal_adc.s
   Uses
      At line 355 in file ..\bsp\include\platform\hal\mcu\stm32f4cube\CMSIS\cor
e_cmInstr.h
Comment: HAL_ADC_AnalogWDGConfig used once
HAL_ADC_ConfigChannel 00000756

Symbol: HAL_ADC_ConfigChannel
   Definitions
      At line 924 in file ./flash/\stm32f4xx_hal_adc.s
   Uses
      At line 354 in file ..\bsp\include\platform\hal\mcu\stm32f4cube\CMSIS\cor
e_cmInstr.h
Comment: HAL_ADC_ConfigChannel used once
HAL_ADC_ConvCpltCallback 000004AE



ARM Macro Assembler    Page 2 Alphabetic symbol ordering
Relocatable symbols


Symbol: HAL_ADC_ConvCpltCallback
   Definitions
      At line 594 in file ./flash/\stm32f4xx_hal_adc.s
   Uses
      At line 665 in file ./flash/\stm32f4xx_hal_adc.s
      At line 799 in file ./flash/\stm32f4xx_hal_adc.s
      At line 348 in file ..\bsp\include\platform\hal\mcu\stm32f4cube\CMSIS\cor
e_cmInstr.h

HAL_ADC_ConvHalfCpltCallback 00000628

Symbol: HAL_ADC_ConvHalfCpltCallback
   Definitions
      At line 771 in file ./flash/\stm32f4xx_hal_adc.s
   Uses
      At line 780 in file ./flash/\stm32f4xx_hal_adc.s
      At line 350 in file ..\bsp\include\platform\hal\mcu\stm32f4cube\CMSIS\cor
e_cmInstr.h

HAL_ADC_DeInit 000001B8

Symbol: HAL_ADC_DeInit
   Definitions
      At line 217 in file ./flash/\stm32f4xx_hal_adc.s
   Uses
      At line 339 in file ..\bsp\include\platform\hal\mcu\stm32f4cube\CMSIS\cor
e_cmInstr.h
Comment: HAL_ADC_DeInit used once
HAL_ADC_ErrorCallback 000004AA

Symbol: HAL_ADC_ErrorCallback
   Definitions
      At line 586 in file ./flash/\stm32f4xx_hal_adc.s
   Uses
      At line 752 in file ./flash/\stm32f4xx_hal_adc.s
      At line 767 in file ./flash/\stm32f4xx_hal_adc.s
      At line 346 in file ..\bsp\include\platform\hal\mcu\stm32f4cube\CMSIS\cor
e_cmInstr.h

HAL_ADC_GetError 00000986

Symbol: HAL_ADC_GetError
   Definitions
      At line 1205 in file ./flash/\stm32f4xx_hal_adc.s
   Uses
      At line 357 in file ..\bsp\include\platform\hal\mcu\stm32f4cube\CMSIS\cor
e_cmInstr.h
Comment: HAL_ADC_GetError used once
HAL_ADC_GetState 0000097E

Symbol: HAL_ADC_GetState
   Definitions
      At line 1199 in file ./flash/\stm32f4xx_hal_adc.s
   Uses
      At line 356 in file ..\bsp\include\platform\hal\mcu\stm32f4cube\CMSIS\cor
e_cmInstr.h
Comment: HAL_ADC_GetState used once
HAL_ADC_GetValue 0000074E



ARM Macro Assembler    Page 3 Alphabetic symbol ordering
Relocatable symbols


Symbol: HAL_ADC_GetValue
   Definitions
      At line 917 in file ./flash/\stm32f4xx_hal_adc.s
   Uses
      At line 353 in file ..\bsp\include\platform\hal\mcu\stm32f4cube\CMSIS\cor
e_cmInstr.h
Comment: HAL_ADC_GetValue used once
HAL_ADC_IRQHandler 000004B0

Symbol: HAL_ADC_IRQHandler
   Definitions
      At line 598 in file ./flash/\stm32f4xx_hal_adc.s
   Uses
      At line 349 in file ..\bsp\include\platform\hal\mcu\stm32f4cube\CMSIS\cor
e_cmInstr.h
Comment: HAL_ADC_IRQHandler used once
HAL_ADC_Init 0000016C

Symbol: HAL_ADC_Init
   Definitions
      At line 176 in file ./flash/\stm32f4xx_hal_adc.s
   Uses
      At line 337 in file ..\bsp\include\platform\hal\mcu\stm32f4cube\CMSIS\cor
e_cmInstr.h
Comment: HAL_ADC_Init used once
HAL_ADC_LevelOutOfWindowCallback 000004AC

Symbol: HAL_ADC_LevelOutOfWindowCallback
   Definitions
      At line 590 in file ./flash/\stm32f4xx_hal_adc.s
   Uses
      At line 733 in file ./flash/\stm32f4xx_hal_adc.s
      At line 347 in file ..\bsp\include\platform\hal\mcu\stm32f4cube\CMSIS\cor
e_cmInstr.h

HAL_ADC_MspDeInit 000001B6

Symbol: HAL_ADC_MspDeInit
   Definitions
      At line 213 in file ./flash/\stm32f4xx_hal_adc.s
   Uses
      At line 228 in file ./flash/\stm32f4xx_hal_adc.s
      At line 338 in file ..\bsp\include\platform\hal\mcu\stm32f4cube\CMSIS\cor
e_cmInstr.h

HAL_ADC_MspInit 0000016A

Symbol: HAL_ADC_MspInit
   Definitions
      At line 172 in file ./flash/\stm32f4xx_hal_adc.s
   Uses
      At line 195 in file ./flash/\stm32f4xx_hal_adc.s
      At line 336 in file ..\bsp\include\platform\hal\mcu\stm32f4cube\CMSIS\cor
e_cmInstr.h

HAL_ADC_PollForConversion 000002A8

Symbol: HAL_ADC_PollForConversion



ARM Macro Assembler    Page 4 Alphabetic symbol ordering
Relocatable symbols

   Definitions
      At line 337 in file ./flash/\stm32f4xx_hal_adc.s
   Uses
      At line 342 in file ..\bsp\include\platform\hal\mcu\stm32f4cube\CMSIS\cor
e_cmInstr.h
Comment: HAL_ADC_PollForConversion used once
HAL_ADC_PollForEvent 0000032A

Symbol: HAL_ADC_PollForEvent
   Definitions
      At line 400 in file ./flash/\stm32f4xx_hal_adc.s
   Uses
      At line 343 in file ..\bsp\include\platform\hal\mcu\stm32f4cube\CMSIS\cor
e_cmInstr.h
Comment: HAL_ADC_PollForEvent used once
HAL_ADC_Start 000001DA

Symbol: HAL_ADC_Start
   Definitions
      At line 236 in file ./flash/\stm32f4xx_hal_adc.s
   Uses
      At line 340 in file ..\bsp\include\platform\hal\mcu\stm32f4cube\CMSIS\cor
e_cmInstr.h
Comment: HAL_ADC_Start used once
HAL_ADC_Start_DMA 0000065C

Symbol: HAL_ADC_Start_DMA
   Definitions
      At line 803 in file ./flash/\stm32f4xx_hal_adc.s
   Uses
      At line 351 in file ..\bsp\include\platform\hal\mcu\stm32f4cube\CMSIS\cor
e_cmInstr.h
Comment: HAL_ADC_Start_DMA used once
HAL_ADC_Start_IT 00000392

Symbol: HAL_ADC_Start_IT
   Definitions
      At line 452 in file ./flash/\stm32f4xx_hal_adc.s
   Uses
      At line 344 in file ..\bsp\include\platform\hal\mcu\stm32f4cube\CMSIS\cor
e_cmInstr.h
Comment: HAL_ADC_Start_IT used once
HAL_ADC_Stop 00000290

Symbol: HAL_ADC_Stop
   Definitions
      At line 324 in file ./flash/\stm32f4xx_hal_adc.s
   Uses
      At line 341 in file ..\bsp\include\platform\hal\mcu\stm32f4cube\CMSIS\cor
e_cmInstr.h
Comment: HAL_ADC_Stop used once
HAL_ADC_Stop_DMA 00000716

Symbol: HAL_ADC_Stop_DMA
   Definitions
      At line 891 in file ./flash/\stm32f4xx_hal_adc.s
   Uses
      At line 352 in file ..\bsp\include\platform\hal\mcu\stm32f4cube\CMSIS\cor
e_cmInstr.h



ARM Macro Assembler    Page 5 Alphabetic symbol ordering
Relocatable symbols

Comment: HAL_ADC_Stop_DMA used once
HAL_ADC_Stop_IT 0000047A

Symbol: HAL_ADC_Stop_IT
   Definitions
      At line 563 in file ./flash/\stm32f4xx_hal_adc.s
   Uses
      At line 345 in file ..\bsp\include\platform\hal\mcu\stm32f4cube\CMSIS\cor
e_cmInstr.h
Comment: HAL_ADC_Stop_IT used once
L0.1012 000003F4

Symbol: L0.1012
   Definitions
      At line 497 in file ./flash/\stm32f4xx_hal_adc.s
   Uses
      At line 10 in file ./flash/\stm32f4xx_hal_adc.s
      At line 19 in file ./flash/\stm32f4xx_hal_adc.s
      At line 291 in file ./flash/\stm32f4xx_hal_adc.s

L0.1016 000003F8

Symbol: L0.1016
   Definitions
      At line 499 in file ./flash/\stm32f4xx_hal_adc.s
   Uses
      At line 13 in file ./flash/\stm32f4xx_hal_adc.s
      At line 306 in file ./flash/\stm32f4xx_hal_adc.s

L0.1020 000003FC

Symbol: L0.1020
   Definitions
      At line 501 in file ./flash/\stm32f4xx_hal_adc.s
   Uses
      At line 54 in file ./flash/\stm32f4xx_hal_adc.s
      At line 184 in file ./flash/\stm32f4xx_hal_adc.s

L0.1024 00000400

Symbol: L0.1024
   Definitions
      At line 503 in file ./flash/\stm32f4xx_hal_adc.s
   Uses
      At line 271 in file ./flash/\stm32f4xx_hal_adc.s
      At line 489 in file ./flash/\stm32f4xx_hal_adc.s

L0.1028 00000404

Symbol: L0.1028
   Definitions
      At line 505 in file ./flash/\stm32f4xx_hal_adc.s
   Uses
      At line 273 in file ./flash/\stm32f4xx_hal_adc.s
      At line 491 in file ./flash/\stm32f4xx_hal_adc.s

L0.1032 00000408

Symbol: L0.1032



ARM Macro Assembler    Page 6 Alphabetic symbol ordering
Relocatable symbols

   Definitions
      At line 507 in file ./flash/\stm32f4xx_hal_adc.s
   Uses
      At line 514 in file ./flash/\stm32f4xx_hal_adc.s
Comment: L0.1032 used once
L0.1038 0000040E

Symbol: L0.1038
   Definitions
      At line 511 in file ./flash/\stm32f4xx_hal_adc.s
   Uses
      At line 495 in file ./flash/\stm32f4xx_hal_adc.s
Comment: L0.1038 used once
L0.1044 00000414

Symbol: L0.1044
   Definitions
      At line 515 in file ./flash/\stm32f4xx_hal_adc.s
   Uses
      At line 483 in file ./flash/\stm32f4xx_hal_adc.s
Comment: L0.1044 used once
L0.1112 00000458

Symbol: L0.1112
   Definitions
      At line 544 in file ./flash/\stm32f4xx_hal_adc.s
   Uses
      At line 533 in file ./flash/\stm32f4xx_hal_adc.s
Comment: L0.1112 used once
L0.1142 00000476

Symbol: L0.1142
   Definitions
      At line 558 in file ./flash/\stm32f4xx_hal_adc.s
   Uses
      At line 537 in file ./flash/\stm32f4xx_hal_adc.s
      At line 543 in file ./flash/\stm32f4xx_hal_adc.s
      At line 548 in file ./flash/\stm32f4xx_hal_adc.s
      At line 552 in file ./flash/\stm32f4xx_hal_adc.s

L0.1248 000004E0

Symbol: L0.1248
   Definitions
      At line 619 in file ./flash/\stm32f4xx_hal_adc.s
   Uses
      At line 615 in file ./flash/\stm32f4xx_hal_adc.s
Comment: L0.1248 used once
L0.1254 000004E6

Symbol: L0.1254
   Definitions
      At line 622 in file ./flash/\stm32f4xx_hal_adc.s
   Uses
      At line 618 in file ./flash/\stm32f4xx_hal_adc.s
Comment: L0.1254 used once
L0.1298 00000512

Symbol: L0.1298



ARM Macro Assembler    Page 7 Alphabetic symbol ordering
Relocatable symbols

   Definitions
      At line 642 in file ./flash/\stm32f4xx_hal_adc.s
   Uses
      At line 630 in file ./flash/\stm32f4xx_hal_adc.s
Comment: L0.1298 used once
L0.1306 0000051A

Symbol: L0.1306
   Definitions
      At line 647 in file ./flash/\stm32f4xx_hal_adc.s
   Uses
      At line 644 in file ./flash/\stm32f4xx_hal_adc.s
Comment: L0.1306 used once
L0.1340 0000053C

Symbol: L0.1340
   Definitions
      At line 663 in file ./flash/\stm32f4xx_hal_adc.s
   Uses
      At line 624 in file ./flash/\stm32f4xx_hal_adc.s
      At line 628 in file ./flash/\stm32f4xx_hal_adc.s
      At line 641 in file ./flash/\stm32f4xx_hal_adc.s
      At line 652 in file ./flash/\stm32f4xx_hal_adc.s

L0.1354 0000054A

Symbol: L0.1354
   Definitions
      At line 669 in file ./flash/\stm32f4xx_hal_adc.s
   Uses
      At line 610 in file ./flash/\stm32f4xx_hal_adc.s
      At line 612 in file ./flash/\stm32f4xx_hal_adc.s

L0.1390 0000056E

Symbol: L0.1390
   Definitions
      At line 684 in file ./flash/\stm32f4xx_hal_adc.s
   Uses
      At line 680 in file ./flash/\stm32f4xx_hal_adc.s
Comment: L0.1390 used once
L0.1396 00000574

Symbol: L0.1396
   Definitions
      At line 687 in file ./flash/\stm32f4xx_hal_adc.s
   Uses
      At line 683 in file ./flash/\stm32f4xx_hal_adc.s
Comment: L0.1396 used once
L0.1420 0000058C

Symbol: L0.1420
   Definitions
      At line 698 in file ./flash/\stm32f4xx_hal_adc.s
   Uses
      At line 695 in file ./flash/\stm32f4xx_hal_adc.s
Comment: L0.1420 used once
L0.1422 0000058E




ARM Macro Assembler    Page 8 Alphabetic symbol ordering
Relocatable symbols

Symbol: L0.1422
   Definitions
      At line 700 in file ./flash/\stm32f4xx_hal_adc.s
   Uses
      At line 697 in file ./flash/\stm32f4xx_hal_adc.s
Comment: L0.1422 used once
L0.1430 00000596

Symbol: L0.1430
   Definitions
      At line 705 in file ./flash/\stm32f4xx_hal_adc.s
   Uses
      At line 703 in file ./flash/\stm32f4xx_hal_adc.s
Comment: L0.1430 used once
L0.1444 000005A4

Symbol: L0.1444
   Definitions
      At line 712 in file ./flash/\stm32f4xx_hal_adc.s
   Uses
      At line 704 in file ./flash/\stm32f4xx_hal_adc.s
      At line 706 in file ./flash/\stm32f4xx_hal_adc.s

L0.1458 000005B2

Symbol: L0.1458
   Definitions
      At line 718 in file ./flash/\stm32f4xx_hal_adc.s
   Uses
      At line 676 in file ./flash/\stm32f4xx_hal_adc.s
      At line 677 in file ./flash/\stm32f4xx_hal_adc.s

L0.1498 000005DA

Symbol: L0.1498
   Definitions
      At line 734 in file ./flash/\stm32f4xx_hal_adc.s
   Uses
      At line 725 in file ./flash/\stm32f4xx_hal_adc.s
      At line 726 in file ./flash/\stm32f4xx_hal_adc.s

L0.1546 0000060A

Symbol: L0.1546
   Definitions
      At line 753 in file ./flash/\stm32f4xx_hal_adc.s
   Uses
      At line 741 in file ./flash/\stm32f4xx_hal_adc.s
      At line 742 in file ./flash/\stm32f4xx_hal_adc.s

L0.160 000000A0

Symbol: L0.160
   Definitions
      At line 81 in file ./flash/\stm32f4xx_hal_adc.s
   Uses
      At line 57 in file ./flash/\stm32f4xx_hal_adc.s
Comment: L0.160 used once
L0.1614 0000064E



ARM Macro Assembler    Page 9 Alphabetic symbol ordering
Relocatable symbols


Symbol: L0.1614
   Definitions
      At line 794 in file ./flash/\stm32f4xx_hal_adc.s
   Uses
      At line 790 in file ./flash/\stm32f4xx_hal_adc.s
Comment: L0.1614 used once
L0.1620 00000654

Symbol: L0.1620
   Definitions
      At line 797 in file ./flash/\stm32f4xx_hal_adc.s
   Uses
      At line 793 in file ./flash/\stm32f4xx_hal_adc.s
Comment: L0.1620 used once
L0.1652 00000674

Symbol: L0.1652
   Definitions
      At line 815 in file ./flash/\stm32f4xx_hal_adc.s
   Uses
      At line 888 in file ./flash/\stm32f4xx_hal_adc.s
Comment: L0.1652 used once
L0.1654 00000676

Symbol: L0.1654
   Definitions
      At line 817 in file ./flash/\stm32f4xx_hal_adc.s
   Uses
      At line 813 in file ./flash/\stm32f4xx_hal_adc.s
Comment: L0.1654 used once
L0.1776 000006F0

Symbol: L0.1776
   Definitions
      At line 868 in file ./flash/\stm32f4xx_hal_adc.s
   Uses
      At line 875 in file ./flash/\stm32f4xx_hal_adc.s
Comment: L0.1776 used once
L0.1782 000006F6

Symbol: L0.1782
   Definitions
      At line 872 in file ./flash/\stm32f4xx_hal_adc.s
   Uses
      At line 867 in file ./flash/\stm32f4xx_hal_adc.s
Comment: L0.1782 used once
L0.1788 000006FC

Symbol: L0.1788
   Definitions
      At line 876 in file ./flash/\stm32f4xx_hal_adc.s
   Uses
      At line 855 in file ./flash/\stm32f4xx_hal_adc.s
Comment: L0.1788 used once
L0.1810 00000712

Symbol: L0.1810
   Definitions



ARM Macro Assembler    Page 10 Alphabetic symbol ordering
Relocatable symbols

      At line 886 in file ./flash/\stm32f4xx_hal_adc.s
   Uses
      At line 880 in file ./flash/\stm32f4xx_hal_adc.s
Comment: L0.1810 used once
L0.184 000000B8

Symbol: L0.184
   Definitions
      At line 92 in file ./flash/\stm32f4xx_hal_adc.s
   Uses
      At line 80 in file ./flash/\stm32f4xx_hal_adc.s
Comment: L0.184 used once
L0.1898 0000076A

Symbol: L0.1898
   Definitions
      At line 934 in file ./flash/\stm32f4xx_hal_adc.s
   Uses
      At line 1129 in file ./flash/\stm32f4xx_hal_adc.s
Comment: L0.1898 used once
L0.1900 0000076C

Symbol: L0.1900
   Definitions
      At line 936 in file ./flash/\stm32f4xx_hal_adc.s
   Uses
      At line 932 in file ./flash/\stm32f4xx_hal_adc.s
Comment: L0.1900 used once
L0.1960 000007A8

Symbol: L0.1960
   Definitions
      At line 964 in file ./flash/\stm32f4xx_hal_adc.s
   Uses
      At line 942 in file ./flash/\stm32f4xx_hal_adc.s
Comment: L0.1960 used once
L0.2000 000007D0

Symbol: L0.2000
   Definitions
      At line 983 in file ./flash/\stm32f4xx_hal_adc.s
   Uses
      At line 963 in file ./flash/\stm32f4xx_hal_adc.s
Comment: L0.2000 used once
L0.2054 00000806

Symbol: L0.2054
   Definitions
      At line 1009 in file ./flash/\stm32f4xx_hal_adc.s
   Uses
      At line 986 in file ./flash/\stm32f4xx_hal_adc.s
Comment: L0.2054 used once
L0.2096 00000830

Symbol: L0.2096
   Definitions
      At line 1029 in file ./flash/\stm32f4xx_hal_adc.s
   Uses
      At line 530 in file ./flash/\stm32f4xx_hal_adc.s



ARM Macro Assembler    Page 11 Alphabetic symbol ordering
Relocatable symbols

Comment: L0.2096 used once
L0.2100 00000834

Symbol: L0.2100
   Definitions
      At line 1031 in file ./flash/\stm32f4xx_hal_adc.s
   Uses
      At line 545 in file ./flash/\stm32f4xx_hal_adc.s
Comment: L0.2100 used once
L0.2104 00000838

Symbol: L0.2104
   Definitions
      At line 1033 in file ./flash/\stm32f4xx_hal_adc.s
   Uses
      At line 831 in file ./flash/\stm32f4xx_hal_adc.s
Comment: L0.2104 used once
L0.2108 0000083C

Symbol: L0.2108
   Definitions
      At line 1035 in file ./flash/\stm32f4xx_hal_adc.s
   Uses
      At line 834 in file ./flash/\stm32f4xx_hal_adc.s
Comment: L0.2108 used once
L0.2112 00000840

Symbol: L0.2112
   Definitions
      At line 1037 in file ./flash/\stm32f4xx_hal_adc.s
   Uses
      At line 837 in file ./flash/\stm32f4xx_hal_adc.s
Comment: L0.2112 used once
L0.2116 00000844

Symbol: L0.2116
   Definitions
      At line 1039 in file ./flash/\stm32f4xx_hal_adc.s
   Uses
      At line 861 in file ./flash/\stm32f4xx_hal_adc.s
Comment: L0.2116 used once
L0.2120 00000848

Symbol: L0.2120
   Definitions
      At line 1041 in file ./flash/\stm32f4xx_hal_adc.s
   Uses
      At line 863 in file ./flash/\stm32f4xx_hal_adc.s
Comment: L0.2120 used once
L0.2124 0000084C

Symbol: L0.2124
   Definitions
      At line 1043 in file ./flash/\stm32f4xx_hal_adc.s
   Uses
      At line 1028 in file ./flash/\stm32f4xx_hal_adc.s
Comment: L0.2124 used once
L0.2138 0000085A




ARM Macro Assembler    Page 12 Alphabetic symbol ordering
Relocatable symbols

Symbol: L0.2138
   Definitions
      At line 1051 in file ./flash/\stm32f4xx_hal_adc.s
   Uses
      At line 1012 in file ./flash/\stm32f4xx_hal_adc.s
Comment: L0.2138 used once
L0.2184 00000888

Symbol: L0.2184
   Definitions
      At line 1073 in file ./flash/\stm32f4xx_hal_adc.s
   Uses
      At line 1008 in file ./flash/\stm32f4xx_hal_adc.s
      At line 1050 in file ./flash/\stm32f4xx_hal_adc.s

L0.2210 000008A2

Symbol: L0.2210
   Definitions
      At line 1085 in file ./flash/\stm32f4xx_hal_adc.s
   Uses
      At line 1077 in file ./flash/\stm32f4xx_hal_adc.s
      At line 1080 in file ./flash/\stm32f4xx_hal_adc.s

L0.2232 000008B8

Symbol: L0.2232
   Definitions
      At line 1097 in file ./flash/\stm32f4xx_hal_adc.s
   Uses
      At line 1093 in file ./flash/\stm32f4xx_hal_adc.s
Comment: L0.2232 used once
L0.2272 000008E0

Symbol: L0.2272
   Definitions
      At line 1115 in file ./flash/\stm32f4xx_hal_adc.s
   Uses
      At line 1122 in file ./flash/\stm32f4xx_hal_adc.s
Comment: L0.2272 used once
L0.2278 000008E6

Symbol: L0.2278
   Definitions
      At line 1119 in file ./flash/\stm32f4xx_hal_adc.s
   Uses
      At line 1114 in file ./flash/\stm32f4xx_hal_adc.s
Comment: L0.2278 used once
L0.2284 000008EC

Symbol: L0.2284
   Definitions
      At line 1123 in file ./flash/\stm32f4xx_hal_adc.s
   Uses
      At line 1089 in file ./flash/\stm32f4xx_hal_adc.s
      At line 1096 in file ./flash/\stm32f4xx_hal_adc.s
      At line 1106 in file ./flash/\stm32f4xx_hal_adc.s

L0.2312 00000908



ARM Macro Assembler    Page 13 Alphabetic symbol ordering
Relocatable symbols


Symbol: L0.2312
   Definitions
      At line 1139 in file ./flash/\stm32f4xx_hal_adc.s
   Uses
      At line 1196 in file ./flash/\stm32f4xx_hal_adc.s
Comment: L0.2312 used once
L0.2314 0000090A

Symbol: L0.2314
   Definitions
      At line 1141 in file ./flash/\stm32f4xx_hal_adc.s
   Uses
      At line 1137 in file ./flash/\stm32f4xx_hal_adc.s
Comment: L0.2314 used once
L0.2342 00000926

Symbol: L0.2342
   Definitions
      At line 1154 in file ./flash/\stm32f4xx_hal_adc.s
   Uses
      At line 1147 in file ./flash/\stm32f4xx_hal_adc.s
Comment: L0.2342 used once
L0.2354 00000932

Symbol: L0.2354
   Definitions
      At line 1160 in file ./flash/\stm32f4xx_hal_adc.s
   Uses
      At line 1153 in file ./flash/\stm32f4xx_hal_adc.s
Comment: L0.2354 used once
L0.2444 0000098C

Symbol: L0.2444
   Definitions
      At line 1211 in file ./flash/\stm32f4xx_hal_adc.s
   Uses
      At line 1074 in file ./flash/\stm32f4xx_hal_adc.s
      At line 1086 in file ./flash/\stm32f4xx_hal_adc.s

L0.2448 00000990

Symbol: L0.2448
   Definitions
      At line 1213 in file ./flash/\stm32f4xx_hal_adc.s
   Uses
      At line 1081 in file ./flash/\stm32f4xx_hal_adc.s
      At line 1098 in file ./flash/\stm32f4xx_hal_adc.s
      At line 1101 in file ./flash/\stm32f4xx_hal_adc.s

L0.2452 00000994

Symbol: L0.2452
   Definitions
      At line 1215 in file ./flash/\stm32f4xx_hal_adc.s
   Uses
      At line 1090 in file ./flash/\stm32f4xx_hal_adc.s
      At line 1103 in file ./flash/\stm32f4xx_hal_adc.s




ARM Macro Assembler    Page 14 Alphabetic symbol ordering
Relocatable symbols

L0.2456 00000998

Symbol: L0.2456
   Definitions
      At line 1217 in file ./flash/\stm32f4xx_hal_adc.s
   Uses
      At line 1107 in file ./flash/\stm32f4xx_hal_adc.s
Comment: L0.2456 used once
L0.2460 0000099C

Symbol: L0.2460
   Definitions
      At line 1219 in file ./flash/\stm32f4xx_hal_adc.s
   Uses
      At line 1109 in file ./flash/\stm32f4xx_hal_adc.s
Comment: L0.2460 used once
L0.2464 000009A0

Symbol: L0.2464
   Definitions
      At line 1221 in file ./flash/\stm32f4xx_hal_adc.s
   Uses
      At line 1163 in file ./flash/\stm32f4xx_hal_adc.s
Comment: L0.2464 used once
L0.268 0000010C

Symbol: L0.268
   Definitions
      At line 128 in file ./flash/\stm32f4xx_hal_adc.s
   Uses
      At line 105 in file ./flash/\stm32f4xx_hal_adc.s
Comment: L0.268 used once
L0.280 00000118

Symbol: L0.280
   Definitions
      At line 134 in file ./flash/\stm32f4xx_hal_adc.s
   Uses
      At line 127 in file ./flash/\stm32f4xx_hal_adc.s
Comment: L0.280 used once
L0.372 00000174

Symbol: L0.372
   Definitions
      At line 181 in file ./flash/\stm32f4xx_hal_adc.s
   Uses
      At line 210 in file ./flash/\stm32f4xx_hal_adc.s
Comment: L0.372 used once
L0.374 00000176

Symbol: L0.374
   Definitions
      At line 183 in file ./flash/\stm32f4xx_hal_adc.s
   Uses
      At line 179 in file ./flash/\stm32f4xx_hal_adc.s
Comment: L0.374 used once
L0.384 00000180

Symbol: L0.384



ARM Macro Assembler    Page 15 Alphabetic symbol ordering
Relocatable symbols

   Definitions
      At line 189 in file ./flash/\stm32f4xx_hal_adc.s
   Uses
      At line 187 in file ./flash/\stm32f4xx_hal_adc.s
Comment: L0.384 used once
L0.402 00000192

Symbol: L0.402
   Definitions
      At line 196 in file ./flash/\stm32f4xx_hal_adc.s
   Uses
      At line 191 in file ./flash/\stm32f4xx_hal_adc.s
Comment: L0.402 used once
L0.448 000001C0

Symbol: L0.448
   Definitions
      At line 222 in file ./flash/\stm32f4xx_hal_adc.s
   Uses
      At line 233 in file ./flash/\stm32f4xx_hal_adc.s
Comment: L0.448 used once
L0.450 000001C2

Symbol: L0.450
   Definitions
      At line 224 in file ./flash/\stm32f4xx_hal_adc.s
   Uses
      At line 220 in file ./flash/\stm32f4xx_hal_adc.s
Comment: L0.450 used once
L0.494 000001EE

Symbol: L0.494
   Definitions
      At line 246 in file ./flash/\stm32f4xx_hal_adc.s
   Uses
      At line 321 in file ./flash/\stm32f4xx_hal_adc.s
Comment: L0.494 used once
L0.496 000001F0

Symbol: L0.496
   Definitions
      At line 248 in file ./flash/\stm32f4xx_hal_adc.s
   Uses
      At line 244 in file ./flash/\stm32f4xx_hal_adc.s
Comment: L0.496 used once
L0.520 00000208

Symbol: L0.520
   Definitions
      At line 258 in file ./flash/\stm32f4xx_hal_adc.s
   Uses
      At line 254 in file ./flash/\stm32f4xx_hal_adc.s
Comment: L0.520 used once
L0.526 0000020E

Symbol: L0.526
   Definitions
      At line 261 in file ./flash/\stm32f4xx_hal_adc.s
   Uses



ARM Macro Assembler    Page 16 Alphabetic symbol ordering
Relocatable symbols

      At line 257 in file ./flash/\stm32f4xx_hal_adc.s
Comment: L0.526 used once
L0.566 00000236

Symbol: L0.566
   Definitions
      At line 278 in file ./flash/\stm32f4xx_hal_adc.s
   Uses
      At line 285 in file ./flash/\stm32f4xx_hal_adc.s
Comment: L0.566 used once
L0.572 0000023C

Symbol: L0.572
   Definitions
      At line 282 in file ./flash/\stm32f4xx_hal_adc.s
   Uses
      At line 277 in file ./flash/\stm32f4xx_hal_adc.s
Comment: L0.572 used once
L0.578 00000242

Symbol: L0.578
   Definitions
      At line 286 in file ./flash/\stm32f4xx_hal_adc.s
   Uses
      At line 265 in file ./flash/\stm32f4xx_hal_adc.s
Comment: L0.578 used once
L0.622 0000026E

Symbol: L0.622
   Definitions
      At line 305 in file ./flash/\stm32f4xx_hal_adc.s
   Uses
      At line 294 in file ./flash/\stm32f4xx_hal_adc.s
Comment: L0.622 used once
L0.652 0000028C

Symbol: L0.652
   Definitions
      At line 319 in file ./flash/\stm32f4xx_hal_adc.s
   Uses
      At line 298 in file ./flash/\stm32f4xx_hal_adc.s
      At line 304 in file ./flash/\stm32f4xx_hal_adc.s
      At line 309 in file ./flash/\stm32f4xx_hal_adc.s
      At line 313 in file ./flash/\stm32f4xx_hal_adc.s

L0.726 000002D6

Symbol: L0.726
   Definitions
      At line 357 in file ./flash/\stm32f4xx_hal_adc.s
   Uses
      At line 379 in file ./flash/\stm32f4xx_hal_adc.s
      At line 397 in file ./flash/\stm32f4xx_hal_adc.s

L0.728 000002D8

Symbol: L0.728
   Definitions
      At line 359 in file ./flash/\stm32f4xx_hal_adc.s



ARM Macro Assembler    Page 17 Alphabetic symbol ordering
Relocatable symbols

   Uses
      At line 345 in file ./flash/\stm32f4xx_hal_adc.s
      At line 349 in file ./flash/\stm32f4xx_hal_adc.s

L0.736 000002E0

Symbol: L0.736
   Definitions
      At line 363 in file ./flash/\stm32f4xx_hal_adc.s
   Uses
      At line 385 in file ./flash/\stm32f4xx_hal_adc.s
Comment: L0.736 used once
L0.752 000002F0

Symbol: L0.752
   Definitions
      At line 371 in file ./flash/\stm32f4xx_hal_adc.s
   Uses
      At line 366 in file ./flash/\stm32f4xx_hal_adc.s
Comment: L0.752 used once
L0.772 00000304

Symbol: L0.772
   Definitions
      At line 380 in file ./flash/\stm32f4xx_hal_adc.s
   Uses
      At line 362 in file ./flash/\stm32f4xx_hal_adc.s
      At line 365 in file ./flash/\stm32f4xx_hal_adc.s
      At line 370 in file ./flash/\stm32f4xx_hal_adc.s

L0.800 00000320

Symbol: L0.800
   Definitions
      At line 392 in file ./flash/\stm32f4xx_hal_adc.s
   Uses
      At line 388 in file ./flash/\stm32f4xx_hal_adc.s
Comment: L0.800 used once
L0.806 00000326

Symbol: L0.806
   Definitions
      At line 395 in file ./flash/\stm32f4xx_hal_adc.s
   Uses
      At line 391 in file ./flash/\stm32f4xx_hal_adc.s
Comment: L0.806 used once
L0.830 0000033E

Symbol: L0.830
   Definitions
      At line 409 in file ./flash/\stm32f4xx_hal_adc.s
   Uses
      At line 432 in file ./flash/\stm32f4xx_hal_adc.s
Comment: L0.830 used once
L0.846 0000034E

Symbol: L0.846
   Definitions
      At line 417 in file ./flash/\stm32f4xx_hal_adc.s



ARM Macro Assembler    Page 18 Alphabetic symbol ordering
Relocatable symbols

   Uses
      At line 412 in file ./flash/\stm32f4xx_hal_adc.s
Comment: L0.846 used once
L0.864 00000360

Symbol: L0.864
   Definitions
      At line 425 in file ./flash/\stm32f4xx_hal_adc.s
   Uses
      At line 449 in file ./flash/\stm32f4xx_hal_adc.s
Comment: L0.864 used once
L0.868 00000364

Symbol: L0.868
   Definitions
      At line 427 in file ./flash/\stm32f4xx_hal_adc.s
   Uses
      At line 408 in file ./flash/\stm32f4xx_hal_adc.s
      At line 411 in file ./flash/\stm32f4xx_hal_adc.s
      At line 416 in file ./flash/\stm32f4xx_hal_adc.s

L0.896 00000380

Symbol: L0.896
   Definitions
      At line 441 in file ./flash/\stm32f4xx_hal_adc.s
   Uses
      At line 434 in file ./flash/\stm32f4xx_hal_adc.s
Comment: L0.896 used once
L0.910 0000038E

Symbol: L0.910
   Definitions
      At line 447 in file ./flash/\stm32f4xx_hal_adc.s
   Uses
      At line 440 in file ./flash/\stm32f4xx_hal_adc.s
Comment: L0.910 used once
L0.934 000003A6

Symbol: L0.934
   Definitions
      At line 462 in file ./flash/\stm32f4xx_hal_adc.s
   Uses
      At line 560 in file ./flash/\stm32f4xx_hal_adc.s
Comment: L0.934 used once
L0.936 000003A8

Symbol: L0.936
   Definitions
      At line 464 in file ./flash/\stm32f4xx_hal_adc.s
   Uses
      At line 460 in file ./flash/\stm32f4xx_hal_adc.s
Comment: L0.936 used once
L0.960 000003C0

Symbol: L0.960
   Definitions
      At line 474 in file ./flash/\stm32f4xx_hal_adc.s
   Uses



ARM Macro Assembler    Page 19 Alphabetic symbol ordering
Relocatable symbols

      At line 470 in file ./flash/\stm32f4xx_hal_adc.s
Comment: L0.960 used once
L0.966 000003C6

Symbol: L0.966
   Definitions
      At line 477 in file ./flash/\stm32f4xx_hal_adc.s
   Uses
      At line 473 in file ./flash/\stm32f4xx_hal_adc.s
Comment: L0.966 used once
|.text| 00000000

Symbol: |.text|
   Definitions
      At line 7 in file ./flash/\stm32f4xx_hal_adc.s
   Uses
      None
Comment: |.text| unused
126 symbols



ARM Macro Assembler    Page 1 Alphabetic symbol ordering
Relocatable symbols

|.arm_vfe_header| 00000000

Symbol: |.arm_vfe_header|
   Definitions
      At line 1224 in file ./flash/\stm32f4xx_hal_adc.s
   Uses
      None
Comment: |.arm_vfe_header| unused
1 symbol



ARM Macro Assembler    Page 1 Alphabetic symbol ordering
Relocatable symbols

__asm___19_stm32f4xx_hal_adc_c_52ef8f50____REV16 00000000

Symbol: __asm___19_stm32f4xx_hal_adc_c_52ef8f50____REV16
   Definitions
      At line 138 in file ..\bsp\include\platform\hal\mcu\stm32f4cube\CMSIS\cor
e_cmInstr.h
   Uses
      At line 3 in file ..\bsp\source\platform\hal\mcu\stm32f4cube\STM32F4xx_HA
L_Driver\stm32f4xx_hal_adc.c
Comment: __asm___19_stm32f4xx_hal_adc_c_52ef8f50____REV16 used once
|.rev16_text| 00000000

Symbol: |.rev16_text|
   Definitions
      At line 1 in file ..\bsp\source\platform\hal\mcu\stm32f4cube\STM32F4xx_HA
L_Driver\stm32f4xx_hal_adc.c
   Uses
      None
Comment: |.rev16_text| unused
2 symbols



ARM Macro Assembler    Page 1 Alphabetic symbol ordering
Relocatable symbols

__asm___19_stm32f4xx_hal_adc_c_52ef8f50____REVSH 00000000

Symbol: __asm___19_stm32f4xx_hal_adc_c_52ef8f50____REVSH
   Definitions
      At line 153 in file ..\bsp\include\platform\hal\mcu\stm32f4cube\CMSIS\cor
e_cmInstr.h
   Uses
      At line 145 in file ..\bsp\include\platform\hal\mcu\stm32f4cube\CMSIS\cor
e_cmInstr.h
Comment: __asm___19_stm32f4xx_hal_adc_c_52ef8f50____REVSH used once
|.revsh_text| 00000000

Symbol: |.revsh_text|
   Definitions
      At line 143 in file ..\bsp\include\platform\hal\mcu\stm32f4cube\CMSIS\cor
e_cmInstr.h
   Uses
      None
Comment: |.revsh_text| unused
2 symbols



ARM Macro Assembler    Page 1 Alphabetic symbol ordering
Relocatable symbols

__asm___19_stm32f4xx_hal_adc_c_52ef8f50____RRX 00000000

Symbol: __asm___19_stm32f4xx_hal_adc_c_52ef8f50____RRX
   Definitions
      At line 328 in file ..\bsp\include\platform\hal\mcu\stm32f4cube\CMSIS\cor
e_cmInstr.h
   Uses
      At line 160 in file ..\bsp\include\platform\hal\mcu\stm32f4cube\CMSIS\cor
e_cmInstr.h
Comment: __asm___19_stm32f4xx_hal_adc_c_52ef8f50____RRX used once
|.rrx_text| 00000000

Symbol: |.rrx_text|
   Definitions
      At line 158 in file ..\bsp\include\platform\hal\mcu\stm32f4cube\CMSIS\cor
e_cmInstr.h
   Uses
      None
Comment: |.rrx_text| unused
2 symbols



ARM Macro Assembler    Page 1 Alphabetic symbol ordering
External symbols

HAL_ADCEx_InjectedConvCpltCallback 00000000

Symbol: HAL_ADCEx_InjectedConvCpltCallback
   Definitions
      At line 362 in file ..\bsp\include\platform\hal\mcu\stm32f4cube\CMSIS\cor
e_cmInstr.h
   Uses
      At line 714 in file ./flash/\stm32f4xx_hal_adc.s
Comment: HAL_ADCEx_InjectedConvCpltCallback used once
HAL_DMA_Abort 00000000

Symbol: HAL_DMA_Abort
   Definitions
      At line 364 in file ..\bsp\include\platform\hal\mcu\stm32f4cube\CMSIS\cor
e_cmInstr.h
   Uses
      At line 910 in file ./flash/\stm32f4xx_hal_adc.s
Comment: HAL_DMA_Abort used once
HAL_DMA_Start_IT 00000000

Symbol: HAL_DMA_Start_IT
   Definitions
      At line 363 in file ..\bsp\include\platform\hal\mcu\stm32f4cube\CMSIS\cor
e_cmInstr.h
   Uses
      At line 845 in file ./flash/\stm32f4xx_hal_adc.s
Comment: HAL_DMA_Start_IT used once
HAL_GetTick 00000000

Symbol: HAL_GetTick
   Definitions
      At line 361 in file ..\bsp\include\platform\hal\mcu\stm32f4cube\CMSIS\cor
e_cmInstr.h
   Uses
      At line 360 in file ./flash/\stm32f4xx_hal_adc.s
      At line 367 in file ./flash/\stm32f4xx_hal_adc.s
      At line 406 in file ./flash/\stm32f4xx_hal_adc.s
      At line 413 in file ./flash/\stm32f4xx_hal_adc.s

SystemCoreClock 00000000

Symbol: SystemCoreClock
   Definitions
      At line 360 in file ..\bsp\include\platform\hal\mcu\stm32f4cube\CMSIS\cor
e_cmInstr.h
   Uses
      At line 504 in file ./flash/\stm32f4xx_hal_adc.s
      At line 1040 in file ./flash/\stm32f4xx_hal_adc.s
      At line 1218 in file ./flash/\stm32f4xx_hal_adc.s

|Lib$$Request$$armlib| 00000000

Symbol: |Lib$$Request$$armlib|
   Definitions
      At line 359 in file ..\bsp\include\platform\hal\mcu\stm32f4cube\CMSIS\cor
e_cmInstr.h
   Uses
      None
Comment: |Lib$$Request$$armlib| unused



ARM Macro Assembler    Page 2 Alphabetic symbol ordering
External symbols

6 symbols
471 symbols in table
